(dp0
(S'|What is the shape o'
p1
S'|of time , and upon '
p2
tp3
(cnumpy.core.multiarray
scalar
p4
(cnumpy
dtype
p5
(S'f8'
p6
I0
I1
tp7
Rp8
(I3
S'<'
p9
NNNI-1
I-1
I0
tp10
bS'\x00\x00\x00\x00\x00\x80@@'
p11
tp12
Rp13
S' is the shape of a porpoise'
p14
S' as the |ha|rbor   porpoise'
p15
(I4
I384
tp16
(I31
I409
tp17
tp18
s(S'|How long does it ta'
p19
S'|Travel; Part L; Pag'
p20
tp21
(g4
(g8
S'\x00\x00\x00\x00\x00\x007@'
p22
tp23
Rp24
S' t|ake to |travel from London to Paris vi||a| ||the| Ch'
p25
S' there || wer||e| |no| lin|es to wa|it |in at either th'
p26
(I16
I303
tp27
(I63
I348
tp28
tp29
s(S'|Which atlantic hurr'
p30
S'|Part A; Page 23; Co'
p31
tp32
(g4
(g8
S'\x00\x00\x00\x00\x00\x00C@'
p33
tp34
Rp35
S'h| atlantic hurricane '
p36
S'he Atlantic hurricane '
p37
(I4
I527
tp38
(I25
I549
tp39
tp40
s(S'|How many lives were'
p41
S'|Business; Part D; P'
p42
tp43
(g4
(g8
S'\x00\x00\x00\x00\x00\x80C@'
p44
tp45
Rp46
S' Lockerbie|, Scotland'
p47
S' Lockerbie , Scotland'
p48
(I47
I403
tp49
(I67
I424
tp50
tp51
s(S'|What is the shape o'
p52
S'|Gary C . Matlock , '
p53
tp54
(g4
(g8
S'\x00\x00\x00\x00\x00\x00\x1c@'
p55
tp56
Rp57
S' |is the'
p58
S' Fis||he'
p59
(I4
I74
tp60
(I11
I80
tp61
tp62
s(S'|What is the number '
p63
S'|COLUMBUS DAY      T'
p64
tp65
(g4
(g8
S'\x00\x00\x00\x00\x00\x00D@'
p66
tp67
Rp68
S's the numb|er||||| of ||buffaloes thought to have ||been living |in |||No||r|||th America||| |||||||when Columbus landed in 1492'
p69
S's the ||observance of Colu|||mbus ||Day , |a da|y commemorating the discovery  of America by Christopher Columbus||||||| in 1492'
p70
(I6
I28
tp71
(I105
I140
tp72
tp73
s(S'|How long is the App'
p74
S'|APPALACHIAN STATES '
p75
tp76
(g4
(g8
S'\x00\x00\x00\x00\x00\x00A@'
p77
tp78
Rp79
S' the Appalachian '
p80
S' the Appalachian '
p81
(I11
I821
tp82
(I28
I838
tp83
tp84
s(S"|What is the world's"
p85
S'|RAPID growth in the'
p86
tp87
(g4
(g8
S'\x00\x00\x00\x00\x00\x00I@'
p88
tp89
Rp90
S"t| is the world's population"
p91
S"th in the world's population"
p92
(I3
I10
tp93
(I30
I38
tp94
tp95
s(S'|Who created the boa'
p96
S'|NEWPORT BEACH VERSI'
p97
tp98
(g4
(g8
S'\x00\x00\x00\x00\x00\x00>@'
p99
tp100
Rp101
S' the|| board game '
p102
S' their board game '
p103
(I11
I1907
tp104
(I27
I1925
tp105
tp106
s(S'|How tall is the Eif'
p107
S'|LONDON is once agai'
p108
tp109
(g4
(g8
S'\x00\x00\x00\x00\x00\x80A@'
p110
tp111
Rp112
S'l i|s the Eiffel Tower'
p113
S'l|ike the Eiffel Tower'
p114
(I7
I74
tp115
(I28
I95
tp116
tp117
s(S'|Who created the boa'
p118
S'|Metro; Part B; Page'
p119
tp120
(g4
(g8
S'\x00\x00\x00\x00\x00\x00=@'
p121
tp122
Rp123
S'ho created the boar||||d|||| game '
p124
S'ho created and |marketed the game '
p125
(I1
I1783
tp126
(I27
I1816
tp127
tp128
s(S'|What year was the M'
p129
S'|CAZ  Canada .   Ind'
p130
tp131
(g4
(g8
S'\x00\x00\x00\x00\x00\x00 @'
p132
tp133
Rp134
S' the Magna'
p135
S' The |Fina'
p136
(I13
I110
tp137
(I23
I119
tp138
tp139
s(S'|What is the world r'
p140
S'|Sports; Part A; Pag'
p141
tp142
(g4
(g8
S'\x00\x00\x00\x00\x00\x00B@'
p143
tp144
Rp145
S' the world record '
p146
S' the world record '
p147
(I7
I1175
tp148
(I25
I1193
tp149
tp150
s(S'|Where is Bolivia?'
p151
S'|LIMA   LANDLOCKED B'
p152
tp153
(g4
(g8
S'\x00\x00\x00\x00\x00\x005@'
p154
tp155
Rp156
S'ere| is Bolivia'
p157
S'eted in Bolivia'
p158
(I2
I849
tp159
(I16
I864
tp160
tp161
s(S'|Where is Chicago?'
p162
S'|Sports; Part C; Pag'
p163
tp164
(g4
(g8
S'\x00\x00\x00\x00\x00\x003@'
p165
tp166
Rp167
S'er|||e is Chicago'
p168
S'er the || Chicago'
p169
(I2
I314
tp170
(I16
I329
tp171
tp172
s(S'|What is the name of'
p173
S'|Metro; Part B; Page'
p174
tp175
(g4
(g8
S'\x00\x00\x00\x00\x00\x00C@'
p176
tp177
Rp178
S' of| the foreign marine pest infes||ti|n||g the |||Great Lakes and associated waterways '
p179
S' of  the spre|||||adin|||||g infestation in the centr|al L||os Angeles|| area ||t|oday| '
p180
(I16
I2328
tp181
(I95
I2397
tp182
tp183
s(S'|Who was the first p'
p184
S'|TRAVELING IN STYLE;'
p185
tp186
(g4
(g8
S'\x00\x00\x00\x00\x00\x80I@'
p187
tp188
Rp189
S' the first person to set| foot on the moon'
p190
S' the human ||race to set  foot on the moon'
p191
(I7
I7948
tp192
(I48
I7988
tp193
tp194
s(S'|Who was President o'
p195
S'|LD2605144794 Tehran'
p196
tp197
(g4
(g8
S'\x00\x00\x00\x00\x00\x80I@'
p198
tp199
Rp200
S' President of Turkmenistan '
p201
S' president of Turkmenistan '
p202
(I7
I299
tp203
(I34
I326
tp204
tp205
s(S'|Who is the CEO of G'
p206
S'|Business; Part A; P'
p207
tp208
(g4
(g8
S'\x00\x00\x00\x00\x00\x00D@'
p209
tp210
Rp211
S' the CEO of| General Electric'
p212
S' |he||ad of  General Electric'
p213
(I6
I254
tp214
(I34
I280
tp215
tp216
s(S"|What is the world's"
p217
S'|By BRONWEN MADDOX  '
p218
tp219
(g4
(g8
S'\x00\x00\x00\x00\x00\x00H@'
p220
tp221
Rp222
S"s the world's population"
p223
S"s the world's population"
p224
(I6
I466
tp225
(I30
I490
tp226
tp227
s(S'|When will the Voyag'
p228
S'|SMEARED PHOTO HELPS'
p229
tp230
(g4
(g8
S'\x00\x00\x00\x00\x00\x80B@'
p231
tp232
Rp233
S' th||e Voyagers lose cont||act with Earth'
p234
S' that  Voyager| ||se|||nt back ||to Earth'
p235
(I9
I3430
tp236
(I46
I3463
tp237
tp238
s(S'|How many lives were'
p239
S'|NEW YORK   A US jur'
p240
tp241
(g4
(g8
S'\x00\x00\x00\x00\x00\x80G@'
p242
tp243
Rp244
S'e lost in| |the Pan Am ||||crash ||in Lockerbie|, Scotland'
p245
S'e bo|mbing of a Pan Am jumbo jet over Lockerbie , Scotland'
p246
(I18
I148
tp247
(I67
I205
tp248
tp249
s(S'|Which atlantic hurr'
p250
S'|NEW YORK , LONDON  '
p251
tp252
(g4
(g8
S'\x00\x00\x00\x00\x00\x00C@'
p253
tp254
Rp255
S' hurricane ha|d the| highest recorded wind speeds'
p256
S' hurricane land|||ed wi||||t||||||||h wind speeds'
p257
(I14
I788
tp258
(I61
I822
tp259
tp260
s(S'|What is the capital'
p261
S'|Toxicity Characteri'
p262
tp263
(g4
(g8
S'\x00\x00\x00\x00\x00\x00=@'
p264
tp265
Rp266
S'e capital of Wisconsin'
p267
S'e da||tes of Wisconsin'
p268
(I10
I1680
tp269
(I32
I1700
tp270
tp271
s(S'|Who was Johnny Math'
p272
S'|TRACK AND FIELD / J'
p273
tp274
(g4
(g8
S'\x00\x00\x00\x00\x00\x00=@'
p275
tp276
Rp277
S"ny Mathis' high school |t"
p278
S'ng with||| high school at'
p279
(I12
I2968
tp280
(I36
I2990
tp281
tp282
s(S"|What was Malcolm X'"
p283
S'|ANNEX   Slovakia   '
p284
tp285
(g4
(g8
S'\x00\x00\x00\x00\x00\x004@'
p286
tp287
Rp288
S' original '
p289
S' original '
p290
(I20
I381
tp291
(I30
I391
tp292
tp293
s(S'|Where is Bolivia?'
p294
S'|PY0802131394 La Paz'
p295
tp296
(g4
(g8
S'\x00\x00\x00\x00\x00\x005@'
p297
tp298
Rp299
S'e |is|| Bolivia'
p300
S'e visit Bolivia'
p301
(I4
I872
tp302
(I16
I887
tp303
tp304
s(S'|The symptoms of Par'
p305
S'|View; Part E; Page '
p306
tp307
(g4
(g8
S'\x00\x00\x00\x00\x00\x80L@'
p308
tp309
Rp310
S"he symptoms| of Parkinson's disea|se are linked to| the dem|||i||s|e|| ||||||of |ce|||||lls |||||in what |area of the brain"
p311
S'he symptoms  of |demen||tia appear , the |onset |of the dementia seems sudden . The strokes affect  th|e par|t of the brain'
p312
(I1
I1253
tp313
(I95
I1369
tp314
tp315
s(S'|When will the Voyag'
p316
S"|VOYAGER 2 : IT'LL S"
p317
tp318
(g4
(g8
S'\x00\x00\x00\x00\x00@Q@'
p319
tp320
Rp321
S' the Voyagers||||| lose contact with Earth'
p322
S' the Voyagers will lose contact with Earth'
p323
(I9
I4049
tp324
(I46
I4091
tp325
tp326
s(S'|What is the capital'
p327
S'|By LESLIE CRAWFORD '
p328
tp329
(g4
(g8
S'\x00\x00\x00\x00\x00\x00>@'
p330
tp331
Rp332
S' |i|s the capital of Uganda'
p333
S' with the c||ream of Uganda'
p334
(I4
I130
tp335
(I29
I155
tp336
tp337
s(S'|Who was President o'
p338
S'|NC2401165994 Tabriz'
p339
tp340
(g4
(g8
S'\x00\x00\x00\x00\x00\x00B@'
p341
tp342
Rp343
S'nt of Turkmenistan |i'
p344
S'ns of Turkmenistan wi'
p345
(I15
I701
tp346
(I35
I722
tp347
tp348
s(S'|What is the number '
p349
S'|By KEVIN RAFFERTY  '
p350
tp351
(g4
(g8
S'\x00\x00\x00\x00\x00\x00F@'
p352
tp353
Rp354
S't |is the |||number of ||buffaloes thought to have been liv||ing i|n North America||| when Col'
p355
S"t for the tran|sfer of 'the values ||o||||||f ||western civilisation |||to America .' The| |ol"
p356
(I3
I432
tp357
(I85
I510
tp358
tp359
s(S'|Who created the boa'
p360
S'|SIX of the senior m'
p361
tp362
(g4
(g8
S'\x00\x00\x00\x00\x00\x001@'
p363
tp364
Rp365
S'r|eated|| the board ga'
p366
S'rte|red , the lea|d ba'
p367
(I5
I716
tp368
(I24
I736
tp369
tp370
s(S'|Who was President o'
p371
S'|LD2603142394 Moscow'
p372
tp373
(g4
(g8
S'\x00\x00\x00\x00\x00\x00C@'
p374
tp375
Rp376
S'resident| of| Turkmenistan in| '
p377
S'res||||ts of  Turkmenistan and '
p378
(I9
I499
tp379
(I37
I526
tp380
tp381
s(S"|What was Malcolm X'"
p382
S'|Part A; Page 7; Col'
p383
tp384
(g4
(g8
S'\x00\x00\x00\x00\x00\x004@'
p385
tp386
Rp387
S' origin||||al| surname'
p388
S' o|f informal  surname'
p389
(I20
I2934
tp390
(I37
I2955
tp391
tp392
s(S'|Who was President o'
p393
S'|LD1306104094 Tehran'
p394
tp395
(g4
(g8
S'\x00\x00\x00\x00\x00\x00@@'
p396
tp397
Rp398
S' of Turkmenistan'
p399
S' of Turkmenistan'
p400
(I17
I255
tp401
(I33
I271
tp402
tp403
s(S'|The symptoms of Par'
p404
S'|Metro; Part B; Page'
p405
tp406
(g4
(g8
S'\x00\x00\x00\x00\x00\x80B@'
p407
tp408
Rp409
S"on's disea|se| a|re linked to th||e demis||||e| |||of cells in wha|||t area of the "
p410
S'on|| ||seaweed appe||||ars to  have de||stroyed brain cells |, leaving ||13 of the '
p411
(I23
I389
tp412
(I90
I459
tp413
tp414
s(S'|Which atlantic hurr'
p415
S'|the use of the 1991'
p416
tp417
(g4
(g8
S'\x00\x00\x00\x00\x00\x00>@'
p418
tp419
Rp420
S'he highest recorded wind speed'
p421
S'h| highe|r de||sign wind speed'
p422
(I30
I3782
tp423
(I60
I3808
tp424
tp425
s(S'|When were the first'
p426
S'|SLOVAKIA      SNS W'
p427
tp428
(g4
(g8
S'\x00\x00\x00\x00\x00\x80G@'
p429
tp430
Rp431
S' were ||the| ||f||||||irst|| free elections ||held in the new Re'
p432
S' were either defeated in the free elections or did  not e|ven |e'
p433
(I4
I1923
tp434
(I53
I1985
tp435
tp436
s(S'|Which country has t'
p437
S'|Part A; Page 6; Col'
p438
tp439
(g4
(g8
S'\x00\x00\x00\x00\x00\x00J@'
p440
tp441
Rp442
S' of the Amazon rain forest'
p443
S' of the Amazon rain forest'
p444
(I34
I5487
tp445
(I60
I5513
tp446
tp447
s(S"|What is the world's"
p448
S'|Part A; Page 5; Col'
p449
tp450
(g4
(g8
S'\x00\x00\x00\x00\x00\x00A@'
p451
tp452
Rp453
S"the| world's population"
p454
S't|ed world|  population'
p455
(I8
I4050
tp456
(I30
I4071
tp457
tp458
s(S'|Who was the first p'
p459
S'|MORNING REPORT : TE'
p460
tp461
(g4
(g8
S'\x00\x00\x00\x00\x00\x009@'
p462
tp463
Rp464
S'set foot on the moon'
p465
S's|t walk on the moon'
p466
(I28
I227
tp467
(I48
I246
tp468
tp469
s(S'|Who was the first p'
p470
S'|ALDRIN SAYS U .S . '
p471
tp472
(g4
(g8
S'\x00\x00\x00\x00\x00\x80H@'
p473
tp474
Rp475
S' the first person to set foot on the moon'
p476
S' the first |||man to s|t|||ep on the moon'
p477
(I7
I950
tp478
(I48
I984
tp479
tp480
s(S'|Where is Chicago?'
p481
S'|Business; Part D; P'
p482
tp483
(g4
(g8
S'\x00\x00\x00\x00\x00\x003@'
p484
tp485
Rp486
S' |i|s| Chicago'
p487
S' First Chicago'
p488
(I5
I134
tp489
(I16
I148
tp490
tp491
s(S'|Who was President o'
p492
S'|Reportage on PRC Pr'
p493
tp494
(g4
(g8
S'\x00\x00\x00\x00\x00\x80@@'
p495
tp496
Rp497
S'sident |of Turkmenistan '
p498
S'si|||t to  Turkmenistan '
p499
(I11
I334
tp500
(I34
I355
tp501
tp502
s(S"|What is the world's"
p503
S'|XAZ  World .   Indu'
p504
tp505
(g4
(g8
S'\x00\x00\x00\x00\x00\x00$@'
p506
tp507
Rp508
S'ation'
p509
S'ation'
p510
(I25
I45
tp511
(I30
I50
tp512
tp513
s(S'|When did Nelson Man'
p514
S'|MEXICO      Foreign'
p515
tp516
(g4
(g8
S'\x00\x00\x00\x00\x00\x00I@'
p517
tp518
Rp519
S' di|d Nelson Mandela|| bec|o||||||||||||||||||||||||||||||me|| President of South Africa'
p520
S" with Nelson Mandela's victory and his swearing-in as the new  president of South Africa"
p521
(I4
I353
tp522
(I56
I441
tp523
tp524
s(S'|What is the name of'
p525
S'|Great Lakes Gas Tra'
p526
tp527
(g4
(g8
S'\x00\x00\x00\x00\x00\x00C@'
p528
tp529
Rp530
S' Great Lakes |and ||a||||ss|o||ci|ated wa|t|er'
p531
S' Great Lakes Ga|s Transmission Limited Partner'
p532
(I57
I161
tp533
(I90
I206
tp534
tp535
s(S'|What hotel was used'
p536
S'|Travel; Part L; Pag'
p537
tp538
(g4
(g8
S'\x00\x00\x00\x00\x00\x80I@'
p539
tp540
Rp541
S't hotel wa|s ||use|d for a settin|g of the Agatha Christie |novel, "And |Then '
p542
S't lite||rary theme . For ins||tance |, the Agatha Christie room is |in  green '
p543
(I3
I5241
tp544
(I74
I5313
tp545
tp546
s(S'|The Faroes are a pa'
p547
S'|worth reflecting th'
p548
tp549
(g4
(g8
S'\x00\x00\x00\x00\x00\x00L@'
p550
tp551
Rp552
S'he |Faroes are |a part of what northern European countr'
p553
S'he bia|||s |in favour| of||||| northern European countr'
p554
(I1
I1564
tp555
(I54
I1609
tp556
tp557
s(S'|What two companies '
p558
S'|The company said it'
p559
tp560
(g4
(g8
S'\x00\x00\x00\x00\x00\x003@'
p561
tp562
Rp563
S' companies '
p564
S' Companies '
p565
(I8
I866
tp566
(I19
I877
tp567
tp568
s(S'|When did Nelson Man'
p569
S'|LD2105183694 Tripol'
p570
tp571
(g4
(g8
S'\x00\x00\x00\x00\x00\x80N@'
p572
tp573
Rp574
S' Nelson Mandela become Presiden|||||t|||||||||||| of South Africa'
p575
S' Nelson Mandela |, the president of the  Republic of South Africa'
p576
(I8
I456
tp577
(I56
I520
tp578
tp579
s(S'|When were the first'
p580
S'|HUNGARY      Boross'
p581
tp582
(g4
(g8
S'\x00\x00\x00\x00\x00\x00E@'
p583
tp584
Rp585
S'he|n w|||ere the |first free elections held in |the new Rep|||ublic |of '
p586
S'hese will be the second free elections |||, it will be| | possibl|e to| '
p587
(I1
I593
tp588
(I63
I658
tp589
tp590
s(S'|Which country has t'
p591
S'|THE WORLD      Braz'
p592
tp593
(g4
(g8
S'\x00\x00\x00\x00\x00\x00J@'
p594
tp595
Rp596
S'ountry has the largest| par|t of the Amazon rain| forest'
p597
S'ounced |a| |||pla||n to p|rotect the Amazon rain  forest'
p598
(I7
I49
tp599
(I60
I97
tp600
tp601
s(S'|How tall is the Sta'
p602
S'|SYMBOL IS UNSHAKEN;'
p603
tp604
(g4
(g8
S'\x00\x00\x00\x00\x00\x00<@'
p605
tp606
Rp607
S' tall i|s the Statue of Liber'
p608
S' Call|ing the statue |a  "ter'
p609
(I3
I833
tp610
(I31
I860
tp611
tp612
s(S'|What is the capital'
p613
S'|or of which the car'
p614
tp615
(g4
(g8
S'\x00\x00\x00\x00\x00\x004@'
p616
tp617
Rp618
S't |i|||s the |capital of '
p619
S't either the qualit|y of '
p620
(I3
I249
tp621
(I23
I273
tp622
tp623
s(S'|What is the name of'
p624
S'|By CANUTE JAMES    '
p625
tp626
(g4
(g8
S'\x00\x00\x00\x00\x00\x00J@'
p627
tp628
Rp629
S' the name of the fore|ign marine pest| i|nfesting the ||Great |Lakes |and associ|ated wat'
p630
S' the cost of the screw-worm| in||festation||| in| the Unite|d States wa|s |es|timated |at'
p631
(I7
I1606
tp632
(I88
I1683
tp633
tp634
s(S'|What is the capital'
p635
S'|LD0204203594 Tehran'
p636
tp637
(g4
(g8
S'\x00\x00\x00\x00\x00\x80F@'
p638
tp639
Rp640
S'at is the capital of Uganda'
p641
S'a| |, the capital of Uganda'
p642
(I2
I285
tp643
(I29
I310
tp644
tp645
s(S'|Who created the boa'
p646
S'|By VICTORIA GRIFFIT'
p647
tp648
(g4
(g8
S'\x00\x00\x00\x00\x00\x008@'
p649
tp650
Rp651
S' board game '
p652
S' board game '
p653
(I15
I220
tp654
(I27
I232
tp655
tp656
s(S"|What was Malcolm X'"
p657
S'|Calendar; Part F; P'
p658
tp659
(g4
(g8
S'\x00\x00\x00\x00\x00\x009@'
p660
tp661
Rp662
S" was| Malcolm X's |o"
p663
S" |as  Malcolm||'s mo"
p664
(I4
I1478
tp665
(I22
I1495
tp666
tp667
s(S'|Which atlantic hurr'
p668
S'|Summary of NIST Rep'
p669
tp670
(g4
(g8
S'\x00\x00\x00\x00\x00\x00;@'
p671
tp672
Rp673
S'h| atlantic hurricane| had the highest '
p674
S'he area||   subjec|ted |to the highest '
p675
(I4
I2485
tp676
(I41
I2520
tp677
tp678
s(S'|What is the number '
p679
S'|AS the song has it '
p680
tp681
(g4
(g8
S'\x00\x00\x00\x00\x00\x80C@'
p682
tp683
Rp684
S'a|t| is the ||n|umber of buffa|loes thought||| to|||| |have| |be|en li|||||||||ving in North| America when Columbu||s la'
p685
S"arts |, the language|||| |||fail||s t|o|| take |off . Wh||en there| |is near-mutiny in |||the fleet a|bout Columbus's la"
p686
(I2
I1877
tp687
(I93
I1975
tp688
tp689
s(S'|When were the first'
p690
S'|HUNGARY      Editor'
p691
tp692
(g4
(g8
S'\x00\x00\x00\x00\x00\x00C@'
p693
tp694
Rp695
S' the f|ir|||st free elect|ions h||e||||l||||d in the| |ne|w Republic |of Hungar'
p696
S' the four Vis|egrad countri|es have collapsed |. The  Czech Republic no| longer'
p697
(I9
I4469
tp698
(I69
I4544
tp699
tp700
s(S'|What is the shape o'
p701
S'|GRIM REPORT ON WHAL'
p702
tp703
(g4
(g8
S'\x00\x00\x00\x00\x00\x007@'
p704
tp705
Rp706
S" a|| porpoises' "
p707
S' and porpoises| '
p708
(I20
I640
tp709
(I34
I655
tp710
tp711
s(S'|Who is the CEO of G'
p712
S'|and comes out in fr'
p713
tp714
(g4
(g8
S'\x00\x00\x00\x00\x00\x00C@'
p715
tp716
Rp717
S' the CEO of General Electric'
p718
S' the|||| US General Electric'
p719
(I6
I127
tp720
(I34
I151
tp721
tp722
s(S"|What was Malcolm X'"
p723
S'|RUSSIA NATIONAL AFF'
p724
tp725
(g4
(g8
S'\x00\x00\x00\x00\x00\x00B@'
p726
tp727
Rp728
S's original surname'
p729
S's original surname'
p730
(I19
I845
tp731
(I37
I863
tp732
tp733
s(S'|Which country has t'
p734
S'|THE WORLD      Eigh'
p735
tp736
(g4
(g8
S'\x00\x00\x00\x00\x00\x00D@'
p737
tp738
Rp739
S' country has the largest part||| of the|||||||| |Ama|zon rain forest'
p740
S" mo|n|ey for the |pr|eserva|tion of the world's greatest rain forest"
p741
(I5
I100
tp742
(I60
I163
tp743
tp744
s(S'|Where is Chicago?'
p745
S'|U .S . Bank Helps F'
p746
tp747
(g4
(g8
S'\x00\x00\x00\x00\x00\x003@'
p748
tp749
Rp750
S' |i|s| Chicago'
p751
S' First Chicago'
p752
(I5
I937
tp753
(I16
I951
tp754
tp755
s(S'|How tall is the Sta'
p756
S'|LADY LIBERTY IS DOI'
p757
tp758
(g4
(g8
S'\x00\x00\x00\x00\x00\x00F@'
p759
tp760
Rp761
S' the Statue of Liberty'
p762
S' the Statue of Liberty'
p763
(I11
I176
tp764
(I33
I198
tp765
tp766
s(S'|Who created the boa'
p767
S'|Special Section; Pa'
p768
tp769
(g4
(g8
S'\x00\x00\x00\x00\x00\x00=@'
p770
tp771
Rp772
S'o created the board game '
p773
S'o create| the|||||| game '
p774
(I2
I659
tp775
(I27
I677
tp776
tp777
s(S'|What is the shape o'
p778
S'|43070027 Tokyo THE '
p779
tp780
(g4
(g8
S'\x00\x00\x00\x00\x00\x009@'
p781
tp782
Rp783
S' is the shape of '
p784
S' is the s|ite of '
p785
(I4
I2995
tp786
(I21
I3011
tp787
tp788
s(S'|How tall is the Eif'
p789
S'|BRIEFLY      Paris '
p790
tp791
(g4
(g8
S'\x00\x00\x00\x00\x00\x00:@'
p792
tp793
Rp794
S' Eiffel Tower'
p795
S' Eiffel Tower'
p796
(I15
I815
tp797
(I28
I828
tp798
tp799
s(S'|Which country has t'
p800
S'|RAIN FOREST TEACHES'
p801
tp802
(g4
(g8
S'\x00\x00\x00\x00\x00\x80D@'
p803
tp804
Rp805
S'nt|ry ||h||||||as the ||large||||s|||t |part of the Amazo|||n rain forest'
p806
S'ntary School with the multimedia scale model of an  Amazonian rain forest'
p807
(I9
I8290
tp808
(I60
I8363
tp809
tp810
s(S'|What hotel was used'
p811
S'|By FRANK GRAY   IF '
p812
tp813
(g4
(g8
S'\x00\x00\x00\x00\x00@U@'
p814
tp815
Rp816
S'hat |h||ot|el was used for a||||| setting |of the Agatha Ch|ristie novel||, "And Then There Were None'
p817
S'ha| Christie||||| used |it as the setting for two ||||of |her||||| novels , |And Then There Were None'
p818
(I1
I1026
tp819
(I89
I1109
tp820
tp821
s(S"|What was Malcolm X'"
p822
S'|POP EYE      By PAT'
p823
tp824
(g4
(g8
S'\x00\x00\x00\x00\x00\x00=@'
p825
tp826
Rp827
S"at was Malcolm X's "
p828
S"atures Malcolm X's "
p829
(I2
I456
tp830
(I21
I475
tp831
tp832
s(S'|The symptoms of Par'
p833
S'|Part A; Page 28; Co'
p834
tp835
(g4
(g8
S'\x00\x00\x00\x00\x00\x80S@'
p836
tp837
Rp838
S"he symptoms of| Parkinson's disease||| |a|||||||re lin||ked t|o the de|mi|||se| ||of cells in||| what a|rea of the brain"
p839
S"he symptoms of  Parkinson's disease in rats by grafting genetically |engineered skin cells into  th|e anima||||ls' brain"
p840
(I1
I161
tp841
(I95
I275
tp842
tp843
s(S'|What is the date of'
p844
S'|By JAMES MORGAN   C'
p845
tp846
(g4
(g8
S'\x00\x00\x00\x00\x00\x00L@'
p847
tp848
Rp849
S't| is| ||the |date |of the Chelsea flower show'
p850
S'te |so much| space to| the Chelsea flower show'
p851
(I3
I1795
tp852
(I43
I1838
tp853
tp854
s(S'|What is the world r'
p855
S'|RUNNING : WITH OLYM'
p856
tp857
(g4
(g8
S'\x00\x00\x00\x00\x00\x80A@'
p858
tp859
Rp860
S's the||| world record '
p861
S's the 8K world record '
p862
(I6
I6920
tp863
(I25
I6942
tp864
tp865
s(S'|What hotel was used'
p866
S'|the Brontes , Brown'
p867
tp868
(g4
(g8
S'\x00\x00\x00\x00\x00\x00?@'
p869
tp870
Rp871
S' ho|t|el was| used for a| setting of the Agatha| Christie novel|,||| "And Then There Were No'
p872
S' to the| East |||. ||Thanks| t||||o| the |Ja|pan ||Festi||||val , he said |||, there were no'
p873
(I4
I760
tp874
(I87
I829
tp875
tp876
s(S'|What is the capital'
p877
S'|MIKE DOWNEY : GOOD '
p878
tp879
(g4
(g8
S'\x00\x00\x00\x00\x00\x00=@'
p880
tp881
Rp882
S' the ||||capital of Michigan'
p883
S' the Universit|y of Michigan'
p884
(I7
I1936
tp885
(I31
I1963
tp886
tp887
s(S'|When did Nelson Man'
p888
S'|REPUBLIC OF SOUTH A'
p889
tp890
(g4
(g8
S'\x00\x00\x00\x00\x00\x80E@'
p891
tp892
Rp893
S'd Nelson| Mandela become |Pre|sident of South| '
p894
S'd Nelson  Mandela on the development of |||the '
p895
(I7
I574
tp896
(I50
I618
tp897
tp898
s(S'|How many lives were'
p899
S'|AMSTERDAM   THE DEA'
p900
tp901
(g4
(g8
S'\x00\x00\x00\x00\x00\x00L@'
p902
tp903
Rp904
S'ives ||wer|||e |||lost i|n |the Pan Am crash in||||||| Lockerbie||, Scotland'
p905
S'i|es after the explos||ion of a Pan Am ||airliner over Lockerbie in Scotland'
p906
(I10
I743
tp907
(I67
I814
tp908
tp909
s(S'|The Faroes are a pa'
p910
S'|OW1705180094 Beijin'
p911
tp912
(g4
(g8
S'\x00\x00\x00\x00\x00\x00:@'
p913
tp914
Rp915
S' of what northern|| European count'
p916
S' of th|e Asian and  European Co|nt'
p917
(I21
I443
tp918
(I53
I475
tp919
tp920
s(S'|What date in 1989 d'
p921
S'|Pankow U-bahn (unde'
p922
tp923
(g4
(g8
S'\x00\x00\x00\x00\x00\x00A@'
p924
tp925
Rp926
S'open the Berlin Wall'
p927
S'ore| the Berlin Wall'
p928
(I35
I321
tp929
(I55
I340
tp930
tp931
s(S'|When were the first'
p932
S'|ROMANIA      Solcan'
p933
tp934
(g4
(g8
S'\x00\x00\x00\x00\x00\x00R@'
p935
tp936
Rp937
S'e the first free||||||||||| elections held |in||| the||||||| |n|||ew Republic of '
p938
S'e the first free multiparty elections held [on 27  February] in the| Republic of '
p939
(I8
I488
tp940
(I63
I568
tp941
tp942
s(S'|How long does it ta'
p943
S'|By ANDREW TAYLOR , '
p944
tp945
(g4
(g8
S'\x00\x00\x00\x00\x00\x00H@'
p946
tp947
Rp948
S'ng does |it take to travel from London to Paris via the Chunnel'
p949
S'n| sort out t|he jo|ur|ney from London to|||||||||| the |tunnel'
p950
(I6
I1134
tp951
(I68
I1182
tp952
tp953
s(S'|How tall is the Sta'
p954
S'|San Gabriel Valley;'
p955
tp956
(g4
(g8
S'\x00\x00\x00\x00\x00\x005@'
p957
tp958
Rp959
S' the Statue '
p960
S' the statue '
p961
(I11
I456
tp962
(I23
I468
tp963
tp964
s(S'|The Faroes are a pa'
p965
S"|'Darren and David h"
p966
tp967
(g4
(g8
S'\x00\x00\x00\x00\x00\x00E@'
p968
tp969
Rp970
S'he Faroe|||||||s are |a||| |pa|rt| |of what northern European c'
p971
S'he Faroe Islands and Wales away to Moldova| . Other| European c'
p972
(I1
I292
tp973
(I49
I353
tp974
tp975
s(S'|What is the world r'
p976
S'|MEADOWLANDS INVITAT'
p977
tp978
(g4
(g8
S'\x00\x00\x00\x00\x00\x00B@'
p979
tp980
Rp981
S' |is the| world record| time |for running '
p982
S' mis||sed world records |i|n sco||r|||ing '
p983
(I4
I322
tp984
(I42
I355
tp985
tp986
s(S'|Where is Chicago?'
p987
S'|By LAURIE MORSE   T'
p988
tp989
(g4
(g8
S'\x00\x00\x00\x00\x00\x000@'
p990
tp991
Rp992
S' Chicago'
p993
S' Chicago'
p994
(I8
I146
tp995
(I16
I154
tp996
tp997
s(S'|Who was the first p'
p998
S'|USZ  United States '
p999
tp1000
(g4
(g8
S'\x00\x00\x00\x00\x00\x00 @'
p1001
tp1002
Rp1003
S' the fi'
p1004
S' The Fi'
p1005
(I7
I124
tp1006
(I14
I131
tp1007
tp1008
s(S'|How tall is the Eif'
p1009
S'|BASTILLE DAY;    LE'
p1010
tp1011
(g4
(g8
S'\x00\x00\x00\x00\x00\x00A@'
p1012
tp1013
Rp1014
S' the Eiffel Tower'
p1015
S' the Eiffel Tower'
p1016
(I11
I2357
tp1017
(I28
I2374
tp1018
tp1019
s(S'|What is the capital'
p1020
S'|Part A; Page 16; Co'
p1021
tp1022
(g4
(g8
S'\x00\x00\x00\x00\x00\x001@'
p1023
tp1024
Rp1025
S' is |||the capital of Uganda'
p1026
S' in northe||a|st||ern Uganda'
p1027
(I4
I637
tp1028
(I29
I660
tp1029
tp1030
s(S'|When did Nelson Man'
p1031
S'|INTER-AFRICAN AFFAI'
p1032
tp1033
(g4
(g8
S'\x00\x00\x00\x00\x00\x00B@'
p1034
tp1035
Rp1036
S' President|||||||| ||of South Africa'
p1037
S' President Mandela said South Africa'
p1038
(I30
I620
tp1039
(I56
I656
tp1040
tp1041
s(S'|What is the capital'
p1042
S'|By RICHARD GOURLAY '
p1043
tp1044
(g4
(g8
S'\x00\x00\x00\x00\x00\x80J@'
p1045
tp1046
Rp1047
S'at |||is|||| the capital of Wisconsin'
p1048
S'at Madison , the capital of Wisconsin'
p1049
(I2
I156
tp1050
(I32
I193
tp1051
tp1052
s(S'|Which atlantic hurr'
p1053
S'|GLOBAL WARMING STOR'
p1054
tp1055
(g4
(g8
S'\x00\x00\x00\x00\x00\x00D@'
p1056
tp1057
Rp1058
S' hurricane| had the hi|ghe|s||t |recorded wind speeds'
p1059
S' hurricanes ||, ||| |increasing the|ir||| wind speeds'
p1060
(I14
I424
tp1061
(I61
I467
tp1062
tp1063
s(S'|Where is Chicago?'
p1064
S'|portfolio in the ea'
p1065
tp1066
(g4
(g8
S'\x00\x00\x00\x00\x00\x005@'
p1067
tp1068
Rp1069
S'ere| |i|s| Chicago'
p1070
S'e|ep First Chicago'
p1071
(I2
I515
tp1072
(I16
I532
tp1073
tp1074
s(S'|Which country has t'
p1075
S'|Part P; Page 1; Col'
p1076
tp1077
(g4
(g8
S'\x00\x00\x00\x00\x00\x00N@'
p1078
tp1079
Rp1080
S' the largest par||t||| of the Amazon rain forest'
p1081
S' the |||dest|||ruction of the Amazon rain forest'
p1082
(I17
I437
tp1083
(I60
I479
tp1084
tp1085
s(S'|What is the number '
p1086
S"|'BONJOUR BLANC' : A"
p1087
tp1088
(g4
(g8
S'\x00\x00\x00\x00\x00\x00>@'
p1089
tp1090
Rp1091
S'to have been living in| North|| Ame||ri||ca when Columbus lande'
p1092
S't| ha|d been |razed and ||||his |men killed |||. Columbus |||de'
p1093
(I40
I1181
tp1094
(I96
I1230
tp1095
tp1096
s(S'|What date in 1989 d'
p1097
S'|Part A; Page 1; Col'
p1098
tp1099
(g4
(g8
S'\x00\x00\x00\x00\x00\x00F@'
p1100
tp1101
Rp1102
S' East Germany|||||| |||||ope|n|||||| the Berlin Wall'
p1103
S' East Germany .     "This means that the Berlin Wall'
p1104
(I21
I1580
tp1105
(I55
I1632
tp1106
tp1107
s(S'|What two companies '
p1108
S'|LIFE SCIENCES   BIO'
p1109
tp1110
(g4
(g8
S'\x00\x00\x00\x00\x00\x00@@'
p1111
tp1112
Rp1113
S' produc||||e| bovine ||||so|mat||otrophi'
p1114
S' produce the  bovine adrenocorticotrop|i'
p1115
(I18
I1199
tp1116
(I46
I1238
tp1117
tp1118
s(S'|Who was Johnny Math'
p1119
S'|CITY BASEBALL COACH'
p1120
tp1121
(g4
(g8
S'\x00\x00\x00\x00\x00\x00<@'
p1122
tp1123
Rp1124
S' high schoo||||l|||| track coach'
p1125
S' High ||football and track coach'
p1126
(I22
I2036
tp1127
(I46
I2066
tp1128
tp1129
s(S'|How tall is the Sta'
p1130
S'|Westside; Part J; P'
p1131
tp1132
(g4
(g8
S'\x00\x00\x00\x00\x00\x008@'
p1133
tp1134
Rp1135
S' tall |is the Statue '
p1136
S' t||o fix the statue '
p1137
(I3
I1531
tp1138
(I23
I1550
tp1139
tp1140
s(S'|When will the Voyag'
p1141
S'|By PAUL GRIFFITHS  '
p1142
tp1143
(g4
(g8
S'\x00\x00\x00\x00\x00\x00:@'
p1144
tp1145
Rp1146
S' the Voyage|rs |lose||| |cont|act |with|| Eart'
p1147
S' The Voyage is properly about any of this |a|t'
p1148
(I9
I1865
tp1149
(I45
I1909
tp1150
tp1151
s(S'|The symptoms of Par'
p1152
S'|DRUG IS FOUND TO DE'
p1153
tp1154
(g4
(g8
S'\x00\x00\x00\x00\x00\x00W@'
p1155
tp1156
Rp1157
S" Parkinson's disease are| linked |to| the demise of cells in wh|||||||a|t|| ||||a||||r||ea of the brain"
p1158
S" Parkinson's disease |resul|||ts from the de|ath of cells in the substantia nigra  portion of the brain"
p1159
(I15
I2956
tp1160
(I95
I3054
tp1161
tp1162
s(S'|What is the number '
p1163
S'|Sports; Part P; Pag'
p1164
tp1165
(g4
(g8
S'\x00\x00\x00\x00\x00\x00@@'
p1166
tp1167
Rp1168
S'at| ||is the number of buffaloes thought to have '
p1169
S"ati says th||||||e|||| Buffaloes |wouldn't| have "
p1170
(I2
I1849
tp1171
(I48
I1886
tp1172
tp1173
s(S'|When did Nelson Man'
p1174
S'|View; Part P; Page '
p1175
tp1176
(g4
(g8
S'\x00\x00\x00\x00\x00\x80@@'
p1177
tp1178
Rp1179
S' Nelson Mandela become President '
p1180
S' Nelson Mandela , cele|brati||ng '
p1181
(I8
I191
tp1182
(I41
I221
tp1183
tp1184
s(S'|When did Nelson Man'
p1185
S'|SK1005112594 Pyongy'
p1186
tp1187
(g4
(g8
S'\x00\x00\x00\x00\x00\x80J@'
p1188
tp1189
Rp1190
S' Nelson Mandela||||||||| |bec||o|||me Presiden|||||t||||||||||| of South Africa'
p1191
S' Nelson Mandela upon his election as  president of the Republic of South Africa'
p1192
(I8
I259
tp1193
(I56
I338
tp1194
tp1195
s(S'|The Faroes are a pa'
p1196
S'|NONFICTION IN BRIEF'
p1197
tp1198
(g4
(g8
S'\x00\x00\x00\x00\x00\x008@'
p1199
tp1200
Rp1201
S'he Faroes |are| |a part '
p1202
S'he Faroes , set in |a|t '
p1203
(I1
I347
tp1204
(I22
I369
tp1205
tp1206
s(S'|What year was the M'
p1207
S'|BK2903055794 Manila'
p1208
tp1209
(g4
(g8
S'\x00\x00\x00\x00\x00\x80C@'
p1210
tp1211
Rp1212
S' was the Magna Carta '
p1213
S' |as the Magna Carta '
p1214
(I9
I378
tp1215
(I30
I398
tp1216
tp1217
s(S'|Who is the composer'
p1218
S'|Calendar; Page 54C;'
p1219
tp1220
(g4
(g8
S'\x00\x00\x00\x00\x00\x00;@'
p1221
tp1222
Rp1223
S' the composer of Eugene O|negi'
p1224
S' the Elm||s " by Eugene O\'Ne|i'
p1225
(I6
I1088
tp1226
(I35
I1115
tp1227
tp1228
s(S'|Where is Chicago?'
p1229
S'|By LAURIE MORSE   C'
p1230
tp1231
(g4
(g8
S'\x00\x00\x00\x00\x00\x002@'
p1232
tp1233
Rp1234
S'e is Chicago'
p1235
S'e to Chicago'
p1236
(I4
I752
tp1237
(I16
I764
tp1238
tp1239
s(S'|Which atlantic hurr'
p1240
S'|Administrators Inte'
p1241
tp1242
(g4
(g8
S'\x00\x00\x00\x00\x00\x00:@'
p1243
tp1244
Rp1245
S'h| a|t||lant||ic hurricane had||||| the '
p1246
S'he afterma|th of Hurricane Andrew , the '
p1247
(I4
I2629
tp1248
(I33
I2668
tp1249
tp1250
s(S'|What is the capital'
p1251
S'|ROSE BOWL : MICHIGA'
p1252
tp1253
(g4
(g8
S'\x00\x00\x00\x00\x00\x00<@'
p1254
tp1255
Rp1256
S'e ca|pit|al of Michigan'
p1257
S'e |and that of Michigan'
p1258
(I10
I3496
tp1259
(I31
I3518
tp1260
tp1261
s(S'|When did Nelson Man'
p1262
S'|OW2302045794 Beijin'
p1263
tp1264
(g4
(g8
S'\x00\x00\x00\x00\x00\x80@@'
p1265
tp1266
Rp1267
S'id||| Nelson Mandela '
p1268
S'ident Nelson Mandela '
p1269
(I6
I221
tp1270
(I24
I242
tp1271
tp1272
s(S'|What two companies '
p1273
S'|By LAURIE MORSE and'
p1274
tp1275
(g4
(g8
S'\x00\x00\x00\x00\x00\x00E@'
p1276
tp1277
Rp1278
S' bovine somatotrophin'
p1279
S' bovine somatotrophin'
p1280
(I26
I237
tp1281
(I47
I258
tp1282
tp1283
s(S"|What is the world's"
p1284
S'|I HAD another lesso'
p1285
tp1286
(g4
(g8
S'\x00\x00\x00\x00\x00\x00B@'
p1287
tp1288
Rp1289
S" th|e world's population"
p1290
S' that world|| population'
p1291
(I7
I1912
tp1292
(I30
I1934
tp1293
tp1294
s(S'|What is the number '
p1295
S'|Opinion; Part M; Pa'
p1296
tp1297
(g4
(g8
S'\x00\x00\x00\x00\x00\x80D@'
p1298
tp1299
Rp1300
S'ought| to |||have been livin||g in North America '
p1301
S'ou||te to India|| |||, l||anded in North America '
p1302
(I34
I956
tp1303
(I77
I996
tp1304
tp1305
s(S'|Where is Bolivia?'
p1306
S'|SPAIN      Bolivian'
p1307
tp1308
(g4
(g8
S'\x00\x00\x00\x00\x00\x003@'
p1309
tp1310
Rp1311
S're i|s||| Bolivia'
p1312
S'redits to Bolivia'
p1313
(I3
I1269
tp1314
(I16
I1286
tp1315
tp1316
s(S'|What year was the M'
p1317
S'|LIVES OF MARTIN MAG'
p1318
tp1319
(g4
(g8
S'\x00\x00\x00\x00\x00\x006@'
p1320
tp1321
Rp1322
S' year|| was the||| Magna Carta s|igned'
p1323
S' years  la||t|er , Magn|||er|| sai|led'
p1324
(I4
I2149
tp1325
(I36
I2178
tp1326
tp1327
s(S"|Who was Lincoln's S"
p1328
S'|MORNING REPORT : BY'
p1329
tp1330
(g4
(g8
S'\x00\x00\x00\x00\x00\x001@'
p1331
tp1332
Rp1333
S'as Lincoln'
p1334
S'am Lincoln'
p1335
(I5
I659
tp1336
(I15
I669
tp1337
tp1338
s(S'|Who is the composer'
p1339
S'|By MAX LOPPERT   IN'
p1340
tp1341
(g4
(g8
S'\x00\x00\x00\x00\x00\x005@'
p1342
tp1343
Rp1344
S'e| composer '
p1345
S'en composer '
p1346
(I9
I1558
tp1347
(I20
I1570
tp1348
tp1349
s(S'|How long does it ta'
p1350
S'|J R Stanyard , part'
p1351
tp1352
(g4
(g8
S'\x00\x00\x00\x00\x00\x001@'
p1353
tp1354
Rp1355
S' London to Pa'
p1356
S' London||| Pa'
p1357
(I36
I282
tp1358
(I49
I292
tp1359
tp1360
s(S'|The symptoms of Par'
p1361
S'|Part P; Page 2; Col'
p1362
tp1363
(g4
(g8
S'\x00\x00\x00\x00\x00\xc0Q@'
p1364
tp1365
Rp1366
S"he sympto|||ms||| of| Parkinson's disease are linked |to the demise| of cells |||i|n|| w||h||a||t ||area of the "
p1367
S"he |||progression of  Parkinson's disease a|||||n||d sho|uld be used in |all| patients with early stages of the "
p1368
(I1
I209
tp1369
(I90
I308
tp1370
tp1371
s(S'|Who was President o'
p1372
S'|BK1101043394 Islama'
p1373
tp1374
(g4
(g8
S'\x00\x00\x00\x00\x00\x80A@'
p1375
tp1376
Rp1377
S'o| was President |of Turkmenistan '
p1378
S'on |a| |visi|||t to| Turkmenistan '
p1379
(I2
I230
tp1380
(I34
I257
tp1381
tp1382
s(S'|What year was the M'
p1383
S'|Ramos Approves `Act'
p1384
tp1385
(g4
(g8
S'\x00\x00\x00\x00\x00\x00A@'
p1386
tp1387
Rp1388
S' the Magna Carta '
p1389
S' the Magna Carta '
p1390
(I13
I1507
tp1391
(I30
I1524
tp1392
tp1393
s(S'|Where is Bolivia?'
p1394
S'|Minister Says Relat'
p1395
tp1396
(g4
(g8
S'\x00\x00\x00\x00\x00\x003@'
p1397
tp1398
Rp1399
S' is Bolivia'
p1400
S' in Bolivia'
p1401
(I5
I816
tp1402
(I16
I827
tp1403
tp1404
s(S'|The symptoms of Par'
p1405
S'|REP . UDALL , BATTL'
p1406
tp1407
(g4
(g8
S'\x00\x00\x00\x00\x00\x00K@'
p1408
tp1409
Rp1410
S"s of Parkinson's disease|||| ||are |linked |||t||o| the| demise| |of "
p1411
S's of Parkinson\'s disease , " Udall said .  "Both of them ||give  you '
p1412
(I11
I1917
tp1413
(I64
I1984
tp1414
tp1415
s(S'|Who is the composer'
p1416
S'|Cathryn Pope looks '
p1417
tp1418
(g4
(g8
S'\x00\x00\x00\x00\x00\x00>@'
p1419
tp1420
Rp1421
S' |of Eugene Onegin'
p1422
S' for Eugene Onegin'
p1423
(I19
I1563
tp1424
(I36
I1581
tp1425
tp1426
s(S'|What is the shape o'
p1427
S'|F .E . Wimmer named'
p1428
tp1429
(g4
(g8
S'\x00\x00\x00\x00\x00\x005@'
p1430
tp1431
Rp1432
S' is the shape| of '
p1433
S' in the ||area of '
p1434
(I4
I3706
tp1435
(I21
I3722
tp1436
tp1437
s(S'|What is the shape o'
p1438
S'|MB1   42  &cir;30  '
p1439
tp1440
(g4
(g8
S'\x00\x00\x00\x00\x00\x00@@'
p1441
tp1442
Rp1443
S' is the |sha|pe of |a|||| porpoise'
p1444
S' in the bycatch of harbor porpoise'
p1445
(I4
I1896
tp1446
(I31
I1930
tp1447
tp1448
s(S'|What is the capital'
p1449
S'|two U .S .G .S . 7 '
p1450
tp1451
(g4
(g8
S'\x00\x00\x00\x00\x00\x009@'
p1452
tp1453
Rp1454
S'hat |||i||s th||e capital of Wisconsin'
p1455
S'hat defines where ||  La||ke Wisconsin'
p1456
(I1
I1214
tp1457
(I32
I1248
tp1458
tp1459
s(S'|How tall is the Eif'
p1460
S'|EXTERIORS : LOFTS I'
p1461
tp1462
(g4
(g8
S'\x00\x00\x00\x00\x00\x80@@'
p1463
tp1464
Rp1465
S' the| Eiffel Tower'
p1466
S' the  Eiffel Tower'
p1467
(I11
I252
tp1468
(I28
I270
tp1469
tp1470
s(S'|Who is the composer'
p1471
S'|joined a gala choru'
p1472
tp1473
(g4
(g8
S'\x00\x00\x00\x00\x00\x00>@'
p1474
tp1475
Rp1476
S'r of Eugene Onegin'
p1477
S'r|om Eugene Onegin'
p1478
(I18
I1194
tp1479
(I36
I1211
tp1480
tp1481
s(S'|What is the capital'
p1482
S'|THE WORLD      Form'
p1483
tp1484
(g4
(g8
S'\x00\x00\x00\x00\x00\x000@'
p1485
tp1486
Rp1487
S' is |||the| capital of Uganda'
p1488
S' is want|ed |by t|||he Uganda'
p1489
(I4
I204
tp1490
(I29
I228
tp1491
tp1492
s(S"|What is the world's"
p1493
S'|WORLD population gr'
p1494
tp1495
(g4
(g8
S'\x00\x00\x00\x00\x00\x80B@'
p1496
tp1497
Rp1498
S"at| is the world's population"
p1499
S'ate of the World|| Population'
p1500
(I2
I349
tp1501
(I30
I376
tp1502
tp1503
s(S'|What is the name of'
p1504
S'|GOVERNORS OF GREAT '
p1505
tp1506
(g4
(g8
S'\x00\x00\x00\x00\x00\x80M@'
p1507
tp1508
Rp1509
S' of the foreig|n |marine pest |infesting the Great Lakes and associated waterways '
p1510
S' of the |||eight sta|||||tes| borde|ring the Great Lakes|||| a||||greed Saturday| '
p1511
(I16
I212
tp1512
(I95
I275
tp1513
tp1514
s(S'|What two companies '
p1515
S'|Part A; Page 24; Co'
p1516
tp1517
(g4
(g8
S'\x00\x00\x00\x00\x00\x80C@'
p1518
tp1519
Rp1520
S' bovine somatotrophin'
p1521
S' bovine somatotrop|in'
p1522
(I26
I540
tp1523
(I47
I560
tp1524
tp1525
s(S'|When were the first'
p1526
S'|ANNEX   Hungary    '
p1527
tp1528
(g4
(g8
S'\x00\x00\x00\x00\x00\x80C@'
p1529
tp1530
Rp1531
S'en| were the |first free| elections |held '
p1532
S'ent said the second free  elections would '
p1533
(I2
I464
tp1534
(I40
I506
tp1535
tp1536
s(S'|Who is the composer'
p1537
S'|OPERA REVIEW;    SO'
p1538
tp1539
(g4
(g8
S'\x00\x00\x00\x00\x00\x009@'
p1540
tp1541
Rp1542
S' is the| |composer of| ||Eugene Onegin'
p1543
S' in duel sc|||ene| of  "Yevgeny Onegin'
p1544
(I3
I3814
tp1545
(I36
I3848
tp1546
tp1547
s(S'|When were the first'
p1548
S'|By NICHOLAS DENTON '
p1549
tp1550
(g4
(g8
S'\x00\x00\x00\x00\x00\x00B@'
p1551
tp1552
Rp1553
S'ns held in the |ne|w Republic '
p1554
S'nd only in the Czech Republic '
p1555
(I32
I699
tp1556
(I60
I729
tp1557
tp1558
s(S"|What was Malcolm X'"
p1559
S'|STAGE REVIEW;    KI'
p1560
tp1561
(g4
(g8
S'\x00\x00\x00\x00\x00\x00<@'
p1562
tp1563
Rp1564
S"t was Malcolm X's or"
p1565
S"t |to Malcolm X's ir"
p1566
(I3
I2733
tp1567
(I23
I2752
tp1568
tp1569
s(S'|Where is Chicago?'
p1570
S'|By TIM DICKSON   In'
p1571
tp1572
(g4
(g8
S'\x00\x00\x00\x00\x00\x003@'
p1573
tp1574
Rp1575
S' is Chicago'
p1576
S' in Chicago'
p1577
(I5
I1760
tp1578
(I16
I1771
tp1579
tp1580
s(S'|What two companies '
p1581
S'|Business; Part D; P'
p1582
tp1583
(g4
(g8
S'\x00\x00\x00\x00\x00\x009@'
p1584
tp1585
Rp1586
S'hat two companies produce|| bovin|e soma|||to|trophin'
p1587
S"ha||t|| ||mean||s producers do||n't ||have to br|||in"
p1588
(I1
I2710
tp1589
(I47
I2748
tp1590
tp1591
s(S'|How long does it ta'
p1592
S'|A sleeper service b'
p1593
tp1594
(g4
(g8
S'\x00\x00\x00\x00\x00\x00<@'
p1595
tp1596
Rp1597
S' |i|t take to ||travel |from |London to Paris vi|a t|he '
p1598
S' will take 10 hour|||s while Glasgow to Paris will take '
p1599
(I13
I132
tp1600
(I61
I185
tp1601
tp1602
s(S'|Which country has t'
p1603
S'|THE LURE OF THE AMA'
p1604
tp1605
(g4
(g8
S'\x00\x00\x00\x00\x00\x80@@'
p1606
tp1607
Rp1608
S' of the|||||| Am||||azon rain forest'
p1609
S' on the South America||n rain forest'
p1610
(I34
I429
tp1611
(I60
I463
tp1612
tp1613
s(S'|What is the capital'
p1614
S'|200 PROTESTING INDI'
p1615
tp1616
(g4
(g8
S'\x00\x00\x00\x00\x00\x00@@'
p1617
tp1618
Rp1619
S'at is the |capital of Wisconsin'
p1620
S'ay |. The sta||t|e of Wisconsin'
p1621
(I2
I449
tp1622
(I32
I476
tp1623
tp1624
s(S'|Who was Johnny Math'
p1625
S'|Part A; Page 30; Co'
p1626
tp1627
(g4
(g8
S'\x00\x00\x00\x00\x00\x00?@'
p1628
tp1629
Rp1630
S"ny Mathis' high school "
p1631
S'nd math||| high school '
p1632
(I12
I3178
tp1633
(I35
I3198
tp1634
tp1635
s(S'|What is the capital'
p1636
S'|NCAA BASKETBALL TOU'
p1637
tp1638
(g4
(g8
S'\x00\x00\x00\x00\x00\x00;@'
p1639
tp1640
Rp1641
S't is the ca|pital |of Michigan'
p1642
S't of the way .    For Michigan'
p1643
(I3
I2200
tp1644
(I31
I2230
tp1645
tp1646
s(S'|Who was Johnny Math'
p1647
S'|Long Beach; Part J;'
p1648
tp1649
(g4
(g8
S'\x00\x00\x00\x00\x00\x00?@'
p1650
tp1651
Rp1652
S"this' high school track coach"
p1653
S'th||| high school|||||| coach'
p1654
(I17
I1930
tp1655
(I46
I1950
tp1656
tp1657
s(S'|Where is Chicago?'
p1658
S'|By LAURIE MORSE    '
p1659
tp1660
(g4
(g8
S'\x00\x00\x00\x00\x00\x000@'
p1661
tp1662
Rp1663
S' Chicago'
p1664
S' Chicago'
p1665
(I8
I159
tp1666
(I16
I167
tp1667
tp1668
s(S"|Who was Lincoln's S"
p1669
S'|Part A; Page 34; Co'
p1670
tp1671
(g4
(g8
S'\x00\x00\x00\x00\x00\x006@'
p1672
tp1673
Rp1674
S" Lincoln's "
p1675
S" Lincoln's "
p1676
(I7
I1246
tp1677
(I18
I1257
tp1678
tp1679
s(S'|When will the Voyag'
p1680
S"|'HEROIC' VOYAGER , "
p1681
tp1682
(g4
(g8
S'\x00\x00\x00\x00\x00\x006@'
p1683
tp1684
Rp1685
S' t|he Voyager|||s |lo|se| '
p1686
S' time Voyager II  crosses '
p1687
(I9
I572
tp1688
(I28
I598
tp1689
tp1690
s(S"|What is the world's"
p1691
S'|populations are age'
p1692
tp1693
(g4
(g8
S'\x00\x00\x00\x00\x00\x00?@'
p1694
tp1695
Rp1696
S" the world's||||| p|opulation"
p1697
S" the world's food produ|ction"
p1698
(I7
I492
tp1699
(I30
I520
tp1700
tp1701
s(S'|What year was the M'
p1702
S'|Sports; Part P; Pag'
p1703
tp1704
(g4
(g8
S'\x00\x00\x00\x00\x00\x003@'
p1705
tp1706
Rp1707
S'a|t year was the Magna Cart|a si'
p1708
S'ast year ||. ||| ||||  Carter hi'
p1709
(I2
I452
tp1710
(I32
I475
tp1711
tp1712
s(S'|What date in 1989 d'
p1713
S'|Part A; Page 50; Co'
p1714
tp1715
(g4
(g8
S'\x00\x00\x00\x00\x00\x00D@'
p1716
tp1717
Rp1718
S' date in 19|||||89 did East Germany open the Berl|||in Wall'
p1719
S' date in 1961 when the East Germans |first|| built the Wall'
p1720
(I4
I3137
tp1721
(I55
I3193
tp1722
tp1723
s(S'|The Faroes are a pa'
p1724
S'|IRELAND      Spring'
p1725
tp1726
(g4
(g8
S'\x00\x00\x00\x00\x00\x00H@'
p1727
tp1728
Rp1729
S'e |a| |||par|t of what| northern European countr'
p1730
S'e can cooperat||e w|ith |o|ther| European countr'
p1731
(I13
I957
tp1732
(I54
I999
tp1733
tp1734
s(S'|What is the capital'
p1735
S'|Geologiques et Mini'
p1736
tp1737
(g4
(g8
S'\x00\x00\x00\x00\x00\x003@'
p1738
tp1739
Rp1740
S's the capital of '
p1741
S's the merit|s of '
p1742
(I6
I731
tp1743
(I23
I747
tp1744
tp1745
s(S"|What was Malcolm X'"
p1746
S'|For purposes of par'
p1747
tp1748
(g4
(g8
S'\x00\x00\x00\x00\x00\x000@'
p1749
tp1750
Rp1751
S"h|at was| Malco|lm X's "
p1752
S"h a| case ||, only X's "
p1753
(I1
I2912
tp1754
(I21
I2932
tp1755
tp1756
s(S'|How many lives were'
p1757
S"|LIBYA'S General Peo"
p1758
tp1759
(g4
(g8
S'\x00\x00\x00\x00\x00\x00K@'
p1760
tp1761
Rp1762
S' the Pan Am crash in||||||| Lockerbie|, Scotland'
p1763
S' the Pan-Am ||airliner over Lockerbie , Scotland'
p1764
(I27
I108
tp1765
(I67
I154
tp1766
tp1767
s(S'|What hotel was used'
p1768
S'|about page 222 of t'
p1769
tp1770
(g4
(g8
S'\x00\x00\x00\x00\x00\x00=@'
p1771
tp1772
Rp1773
S'ed for |a| set||ting of |the Agatha Christie novel, ||"And Then There '
p1774
S'ed to| say ||that||| on st|||||a|ge Christie wo|rks better , as |here '
p1775
(I17
I476
tp1776
(I80
I532
tp1777
tp1778
s(S'|The Faroes are a pa'
p1779
S'|CARMEN Electronics '
p1780
tp1781
(g4
(g8
S'\x00\x00\x00\x00\x00\x00E@'
p1782
tp1783
Rp1784
S'at northern European countr'
p1785
S'al |o|ther| European countr'
p1786
(I27
I551
tp1787
(I54
I575
tp1788
tp1789
s(S'|What is the date of'
p1790
S'|By PATRICIA MORISON'
p1791
tp1792
(g4
(g8
S'\x00\x00\x00\x00\x00\x00H@'
p1793
tp1794
Rp1795
S'at |is the date of the Chelsea flower show'
p1796
S'ar visitor ||t||o| the Chelsea Flower Show'
p1797
(I2
I36
tp1798
(I43
I73
tp1799
tp1800
s(S'|Who was the first p'
p1801
S'|By VANESSA HOULDER '
p1802
tp1803
(g4
(g8
S'\x00\x00\x00\x00\x00\x00F@'
p1804
tp1805
Rp1806
S' the ||first person| to| se|t||| foot on the moon'
p1807
S' the achi|||eve|ment |of setting foot on the moon'
p1808
(I7
I4714
tp1809
(I48
I4758
tp1810
tp1811
s(S'|Who was Johnny Math'
p1812
S'|Metro; Part B; Page'
p1813
tp1814
(g4
(g8
S'\x00\x00\x00\x00\x00\x00<@'
p1815
tp1816
Rp1817
S" Johnny |Mat|||his' high school "
p1818
S' Noting that junior high school '
p1819
(I7
I3830
tp1820
(I35
I3862
tp1821
tp1822
s(S'|Which atlantic hurr'
p1823
S'|Part A; Page 19; Co'
p1824
tp1825
(g4
(g8
S'\x00\x00\x00\x00\x00\x00?@'
p1826
tp1827
Rp1828
S'ane had the highest recorded win'
p1829
S'age ||, the highest le|||vel sin'
p1830
(I21
I1822
tp1831
(I53
I1849
tp1832
tp1833
s(S'|How many lives were'
p1834
S'|Part P; Page 2; Col'
p1835
tp1836
(g4
(g8
S'\x00\x00\x00\x00\x00\x00:@'
p1837
tp1838
Rp1839
S'ive|s were ||lost in the Pan Am crash in Lockerbie, '
p1840
S'izers were expect|ed t|o ja|||m||||||||| Lockerbie| '
p1841
(I10
I1884
tp1842
(I59
I1921
tp1843
tp1844
s(S'|Who created the boa'
p1845
S'|By PETER BERLIN   T'
p1846
tp1847
(g4
(g8
S'\x00\x00\x00\x00\x00\x00@@'
p1848
tp1849
Rp1850
S' the board game '
p1851
S' the board game '
p1852
(I11
I6315
tp1853
(I27
I6331
tp1854
tp1855
s(S'|Who created the boa'
p1856
S"|Ombudsman's office "
p1857
tp1858
(g4
(g8
S'\x00\x00\x00\x00\x00\x004@'
p1859
tp1860
Rp1861
S'o cre|||ated the bo'
p1862
S'o |regulate| the co'
p1863
(I2
I972
tp1864
(I18
I989
tp1865
tp1866
s(S'|Where is Bolivia?'
p1867
S'|INTER-AMERICAN AFFA'
p1868
tp1869
(g4
(g8
S'\x00\x00\x00\x00\x00\x003@'
p1870
tp1871
Rp1872
S'ere is Bolivia'
p1873
S'ements Bolivia'
p1874
(I2
I1513
tp1875
(I16
I1527
tp1876
tp1877
s(S'|What is the name of'
p1878
S'|in a light cargo lo'
p1879
tp1880
(g4
(g8
S'\x00\x00\x00\x00\x00\x00K@'
p1881
tp1882
Rp1883
S't is the |||||name||| of th|e foreign marine |pe|st infesting the Great Lakes '
p1884
S't to the requirements of this subpart may be operat||||ed in| the Great Lakes '
p1885
(I3
I2483
tp1886
(I70
I2556
tp1887
tp1888
s(S'|Where is Bolivia?'
p1889
S'|LATIN AMERICA   BOL'
p1890
tp1891
(g4
(g8
S'\x00\x00\x00\x00\x00\x003@'
p1892
tp1893
Rp1894
S're i|s Bolivia'
p1895
S'r| in  Bolivia'
p1896
(I3
I646
tp1897
(I16
I659
tp1898
tp1899
s(S"|Who was Lincoln's S"
p1900
S'|PURCHASE DEAL IS RE'
p1901
tp1902
(g4
(g8
S'\x00\x00\x00\x00\x00\x006@'
p1903
tp1904
Rp1905
S' Secretary '
p1906
S' Secretary '
p1907
(I17
I4233
tp1908
(I28
I4244
tp1909
tp1910
s(S'|Where is Bolivia?'
p1911
S'|By CHRIS PHILIPSBOR'
p1912
tp1913
(g4
(g8
S'\x00\x00\x00\x00\x00\x003@'
p1914
tp1915
Rp1916
S' is Bolivia'
p1917
S' if Bolivia'
p1918
(I5
I1595
tp1919
(I16
I1606
tp1920
tp1921
s(S'|What is the capital'
p1922
S'|KAMPALA   When the '
p1923
tp1924
(g4
(g8
S'\x00\x00\x00\x00\x00\x008@'
p1925
tp1926
Rp1927
S'at is the ca||pital of|||| Uganda'
p1928
S'at||| the |amount|| of aid Uganda'
p1929
(I2
I2094
tp1930
(I29
I2121
tp1931
tp1932
s(S'|What two companies '
p1933
S'|hormone for cows ta'
p1934
tp1935
(g4
(g8
S'\x00\x00\x00\x00\x00\x00E@'
p1936
tp1937
Rp1938
S' bovine somatotrophin'
p1939
S' bovine somatotrophin'
p1940
(I26
I566
tp1941
(I47
I587
tp1942
tp1943
s(S'|Which atlantic hurr'
p1944
S'|NEAR EAST/SOUTH ASI'
p1945
tp1946
(g4
(g8
S'\x00\x00\x00\x00\x00\x009@'
p1947
tp1948
Rp1949
S'ane had the hi|ghest recorded wind speeds'
p1950
S'ane|ous |reading||s| |||o|||f wind speeds'
p1951
(I21
I1356
tp1952
(I61
I1386
tp1953
tp1954
s(S'|How many lives were'
p1955
S'|NEW YORK   THE UN S'
p1956
tp1957
(g4
(g8
S'\x00\x00\x00\x00\x00\x00<@'
p1958
tp1959
Rp1960
S' in| the Pan Am crash in Lockerbie, Sc'
p1961
S' and the |US in |||th||e Lockerbie| |c'
p1962
(I24
I927
tp1963
(I61
I957
tp1964
tp1965
s(S"|Who was Lincoln's S"
p1966
S'|Sports; Part 3; Pag'
p1967
tp1968
(g4
(g8
S'\x00\x00\x00\x00\x00\x007@'
p1969
tp1970
Rp1971
S" Lincoln's Se"
p1972
S" Lincoln's le"
p1973
(I7
I1727
tp1974
(I20
I1740
tp1975
tp1976
s(S'|What is the world r'
p1977
S'|NEWSWIRE      Calvi'
p1978
tp1979
(g4
(g8
S'\x00\x00\x00\x00\x00\x80B@'
p1980
tp1981
Rp1982
S' is|| the world record '
p1983
S' |set the world record '
p1984
(I4
I665
tp1985
(I25
I687
tp1986
tp1987
s(S'|The symptoms of Par'
p1988
S'|Part A; Page 3; Col'
p1989
tp1990
(g4
(g8
S'\x00\x00\x00\x00\x00\x80Q@'
p1991
tp1992
Rp1993
S"oms of Parkinson's disease are linked ||t|o the demise of cells in wha||t area of th|e br"
p1994
S"ons |. Parkinson's disease ar|||i|ses with  the ||loss of ce|rtain brains |ce|lls that pr"
p1995
(I9
I5574
tp1996
(I92
I5653
tp1997
tp1998
s(S"|What is the world's"
p1999
S'|per cent of the gro'
p2000
tp2001
(g4
(g8
S'\x00\x00\x00\x00\x00\x80H@'
p2002
tp2003
Rp2004
S"hat is the world's population"
p2005
S"hat||| the world's population"
p2006
(I1
I65
tp2007
(I30
I91
tp2008
tp2009
s(S'|How long does it ta'
p2010
S'|its own cheap fligh'
p2011
tp2012
(g4
(g8
S'\x00\x00\x00\x00\x00\x00F@'
p2013
tp2014
Rp2015
S' from London to Paris '
p2016
S' from London to Paris '
p2017
(I31
I88
tp2018
(I53
I110
tp2019
tp2020
s(S'|Who is the composer'
p2021
S'|By ANDREW CLARK   G'
p2022
tp2023
(g4
(g8
S'\x00\x00\x00\x00\x00\x009@'
p2024
tp2025
Rp2026
S' is the composer of Euge|||ne| On|e'
p2027
S' in the ||manner of a seasoned ense'
p2028
(I3
I2106
tp2029
(I33
I2139
tp2030
tp2031
s(S'|Where is Bolivia?'
p2032
S'|CARIBBEAN   Cuba   '
p2033
tp2034
(g4
(g8
S'\x00\x00\x00\x00\x00\x005@'
p2035
tp2036
Rp2037
S'r|e| is Bolivia'
p2038
S'rted in Bolivia'
p2039
(I3
I705
tp2040
(I16
I720
tp2041
tp2042
s(S'|What is the name of'
p2043
S'|USDA Export Program'
p2044
tp2045
(g4
(g8
S'\x00\x00\x00\x00\x00\x00E@'
p2046
tp2047
Rp2048
S'of the foreign ma|||||rine pes|||t| |infe||||sti|n||g the Great Lakes ||and as'
p2049
S'om the |Gre|at Lakes coincides with the expiration of the Great Lakes ``set as'
p2050
(I17
I1614
tp2051
(I76
I1690
tp2052
tp2053
s(S"|What is the world's"
p2054
S'|By LISA BRANSTEN   '
p2055
tp2056
(g4
(g8
S'\x00\x00\x00\x00\x00\x00B@'
p2057
tp2058
Rp2059
S" |is the world's population"
p2060
S' wi||th| world|| population'
p2061
(I4
I476
tp2062
(I30
I498
tp2063
tp2064
s(S'|When did Nelson Man'
p2065
S'|WS1205133294 Riga L'
p2066
tp2067
(g4
(g8
S'\x00\x00\x00\x00\x00\x00C@'
p2068
tp2069
Rp2070
S'en| did Nelson Mandela|| ||||||becom|||e||||| Pre|||||||||||s|ide||n||||t| |of South Africa'
p2071
S'ent |,  Nelson Mandela . [passage omitted]    Speaking of his meeting with the South Africa'
p2072
(I2
I472
tp2073
(I56
I562
tp2074
tp2075
s(S'|How long does it ta'
p2076
S'|By BETHAN HUTTON   '
p2077
tp2078
(g4
(g8
S'\x00\x00\x00\x00\x00\x00;@'
p2079
tp2080
Rp2081
S' does it||| take to travel '
p2082
S' so|| it is wise to travel '
p2083
(I8
I832
tp2084
(I32
I857
tp2085
tp2086
s(S'|What two companies '
p2087
S'|interested in manuf'
p2088
tp2089
(g4
(g8
S'\x00\x00\x00\x00\x00\x003@'
p2090
tp2091
Rp2092
S' companies '
p2093
S' Companies '
p2094
(I8
I578
tp2095
(I19
I589
tp2096
tp2097
s(S'|What hotel was used'
p2098
S'|At 9 .30 BBC1 begin'
p2099
tp2100
(g4
(g8
S'\x00\x00\x00\x00\x00\x80J@'
p2101
tp2102
Rp2103
S'el was ||use|d|| |for| a| setti|ng of the Agatha Christie '
p2104
S'e| |a| latterday American version| of the Agatha Christie '
p2105
(I8
I495
tp2106
(I57
I549
tp2107
tp2108
s(S'|Which atlantic hurr'
p2109
S'|HGSYSTEM estimates '
p2110
tp2111
(g4
(g8
S'\x00\x00\x00\x00\x00\x008@'
p2112
tp2113
Rp2114
S'd t||||he highest re|corde|d wind speed'
p2115
S'd to move with| t|he ambient wind speed'
p2116
(I27
I635
tp2117
(I60
I672
tp2118
tp2119
s(S'|What date in 1989 d'
p2120
S'|By JUDY DEMPSEY   T'
p2121
tp2122
(g4
(g8
S'\x00\x00\x00\x00\x00\x00C@'
p2123
tp2124
Rp2125
S'e in 1989 di||d East |||Germany ||open| the Berlin Wall'
p2126
S'e is that since |all proper||ty alo||ng the Berlin Wall'
p2127
(I8
I916
tp2128
(I55
I966
tp2129
tp2130
s(S'|How tall is the Eif'
p2131
S'|Part A; Page 1; Col'
p2132
tp2133
(g4
(g8
S'\x00\x00\x00\x00\x00\x00A@'
p2134
tp2135
Rp2136
S' the Eiffel Tower'
p2137
S' the Eiffel Tower'
p2138
(I11
I666
tp2139
(I28
I683
tp2140
tp2141
s(S'|What is the world r'
p2142
S'|PEOPLE / HERBERT J '
p2143
tp2144
(g4
(g8
S'\x00\x00\x00\x00\x00\x80B@'
p2145
tp2146
Rp2147
S' the world|| record time for '
p2148
S" the world's record||||| for "
p2149
(I7
I818
tp2150
(I34
I842
tp2151
tp2152
s(S'|When were the first'
p2153
S'|Part A; Page 6; Col'
p2154
tp2155
(g4
(g8
S'\x00\x00\x00\x00\x00\x00B@'
p2156
tp2157
Rp2158
S' free elections he||||ld |in the '
p2159
S' free elections next May for the '
p2160
(I19
I1242
tp2161
(I47
I1275
tp2162
tp2163
s(S'|What two companies '
p2164
S'|world and the regul'
p2165
tp2166
(g4
(g8
S'\x00\x00\x00\x00\x00\x004@'
p2167
tp2168
Rp2169
S't| two companies produce bovine so'
p2170
S'to the domesti|c produc|tio||n| |o'
p2171
(I3
I1404
tp2172
(I36
I1432
tp2173
tp2174
s(S'|What hotel was used'
p2175
S'|By PATRICIA WALKER '
p2176
tp2177
(g4
(g8
S'\x00\x00\x00\x00\x00\x80B@'
p2178
tp2179
Rp2180
S' the|||||| Agatha Christie no'
p2181
S' the 1930s Agatha Christie vo'
p2182
(I36
I23
tp2183
(I59
I52
tp2184
tp2185
s(S'|When were the first'
p2186
S'|HUNGARY      MDF Co'
p2187
tp2188
(g4
(g8
S'\x00\x00\x00\x00\x00\x00A@'
p2189
tp2190
Rp2191
S' free elections |h||||eld in the'
p2192
S' free elections that were || |he'
p2193
(I19
I699
tp2194
(I46
I728
tp2195
tp2196
s(S'|What is the number '
p2197
S'|Metro; Part B; Page'
p2198
tp2199
(g4
(g8
S'\x00\x00\x00\x00\x00\x00E@'
p2200
tp2201
Rp2202
S' |to have been living in North|| |America| when Columbus landed in'
p2203
S' at| home |||, |||and in |||the  same year that Columbus sailed in'
p2204
(I39
I387
tp2205
(I100
I443
tp2206
tp2207
s(S'|How many lives were'
p2208
S'|ANNEX   United King'
p2209
tp2210
(g4
(g8
S'\x00\x00\x00\x00\x00\x00<@'
p2211
tp2212
Rp2213
S' many |lives were lo|st in |||the |Pan |Am |c||rash ||in||| Lockerbie, '
p2214
S' Pan| Am jet  e|xploded in flight over the Scottish town of Lockerbie| '
p2215
(I3
I902
tp2216
(I59
I970
tp2217
tp2218
s(S'|What two companies '
p2219
S'|BRUSSELS   THE EURO'
p2220
tp2221
(g4
(g8
S'\x00\x00\x00\x00\x00\x00B@'
p2222
tp2223
Rp2224
S' bovine somatotrophin'
p2225
S' Bovine Somatotrophin'
p2226
(I26
I63
tp2227
(I47
I84
tp2228
tp2229
s(S'|When will the Voyag'
p2230
S'|Part A; Page 3; Col'
p2231
tp2232
(g4
(g8
S'\x00\x00\x00\x00\x00\x00B@'
p2233
tp2234
Rp2235
S' will th||e Voyagers lose|||| ||co|ntact with Earth'
p2236
S' will |have |||||its ||second encount|er with Earth'
p2237
(I4
I2767
tp2238
(I46
I2809
tp2239
tp2240
s(S'|What two companies '
p2241
S'|Portugal on the lis'
p2242
tp2243
(g4
(g8
S'\x00\x00\x00\x00\x00\x00;@'
p2244
tp2245
Rp2246
S' compan||ies ||produce bovine s|o'
p2247
S' co||untries wher||||e bovine spo'
p2248
(I8
I2668
tp2249
(I36
I2695
tp2250
tp2251
s(S'|What is the name of'
p2252
S'|DEPARTMENT OF TRANS'
p2253
tp2254
(g4
(g8
S'\x00\x00\x00\x00\x00\x00K@'
p2255
tp2256
Rp2257
S' of the fore|ign |marine |pest infesting the Great Lakes and |a'
p2258
S' of the ||vessel loading the|| cargo on| the Great Lakes and ca'
p2259
(I16
I3457
tp2260
(I75
I3515
tp2261
tp2262
s(S'|What two companies '
p2263
S'|By DELLA BRADSHAW  '
p2264
tp2265
(g4
(g8
S'\x00\x00\x00\x00\x00\x00G@'
p2266
tp2267
Rp2268
S't| two compan||||||ies |pr|oduce bovine somatotrophin'
p2269
S'th the ||m|anufactured hormo||ne bovine somatotrophin'
p2270
(I3
I1974
tp2271
(I47
I2022
tp2272
tp2273
s(S"|Who was Lincoln's S"
p2274
S'|Notice is hereby gi'
p2275
tp2276
(g4
(g8
S'\x00\x00\x00\x00\x00\x00=@'
p2277
tp2278
Rp2279
S' Secretary of St'
p2280
S' Secretary of |t'
p2281
(I17
I398
tp2282
(I33
I413
tp2283
tp2284
s(S'|What is the shape o'
p2285
S'|Metro; Part B; Page'
p2286
tp2287
(g4
(g8
S'\x00\x00\x00\x00\x00\x80@@'
p2288
tp2289
Rp2290
S'e shape of a porpoise'
p2291
S'e tha|t of a porpoise'
p2292
(I10
I1243
tp2293
(I31
I1263
tp2294
tp2295
s(S'|What is the date of'
p2296
S'|Great Marquee . Mis'
p2297
tp2298
(g4
(g8
S'\x00\x00\x00\x00\x00\x00I@'
p2299
tp2300
Rp2301
S'ha|t |i|s|| the |da|te of the Chel||s|||ea|||| flower show'
p2302
S"have missed the heart| of the world's greatest flower show"
p2303
(I1
I72
tp2304
(I43
I129
tp2305
tp2306
s(S'|Which country has t'
p2307
S'|MAKING A DIFFERENCE'
p2308
tp2309
(g4
(g8
S'\x00\x00\x00\x00\x00\x80C@'
p2310
tp2311
Rp2312
S's th|e large|st| par|t of the Amazon rain forest'
p2313
S's |had worked to p|rotect the Amazo|||||n forest'
p2314
(I16
I335
tp2315
(I60
I376
tp2316
tp2317
s(S'|The Faroes are a pa'
p2318
S'|OW1305123294 Beijin'
p2319
tp2320
(g4
(g8
S'\x00\x00\x00\x00\x00\x00,@'
p2321
tp2322
Rp2323
S' p|a|||r|t o|f what north'
p2324
S' platforms on  th|e North'
p2325
(I16
I403
tp2326
(I35
I427
tp2327
tp2328
s(S'|How many lives were'
p2329
S'|PRINCE CHARLES VISI'
p2330
tp2331
(g4
(g8
S'\x00\x00\x00\x00\x00\x00<@'
p2332
tp2333
Rp2334
S' the Pan Am |cr|||||as||h in '
p2335
S' the Pan Am air  disaster in '
p2336
(I27
I228
tp2337
(I48
I257
tp2338
tp2339
s(S'|How long does it ta'
p2340
S'|By ALICE RAWSTHORN '
p2341
tp2342
(g4
(g8
S'\x00\x00\x00\x00\x00\x00D@'
p2343
tp2344
Rp2345
S' to travel from Lo||||nd|on t|o Pari|s |via| the| '
p2346
S' to travel from |one end of the ||city to another '
p2347
(I21
I2825
tp2348
(I61
I2872
tp2349
tp2350
s(S'|How long is the App'
p2351
S"|ON THE RECORD : IT'"
p2352
tp2353
(g4
(g8
S'\x00\x00\x00\x00\x00\x00<@'
p2354
tp2355
Rp2356
S'long|| is the |Appalachian |Trai'
p2357
S'langer |.     "Appalachian Spr|i'
p2358
(I4
I3409
tp2359
(I32
I3439
tp2360
tp2361
s(S'|How tall is the Sta'
p2362
S'|Part A; Page 30; Co'
p2363
tp2364
(g4
(g8
S'\x00\x00\x00\x00\x00\x00F@'
p2365
tp2366
Rp2367
S' the Statue of Liberty'
p2368
S' the Statue of Liberty'
p2369
(I11
I187
tp2370
(I33
I209
tp2371
tp2372
s(S'|What is the capital'
p2373
S'|Visas : Not require'
p2374
tp2375
(g4
(g8
S'\x00\x00\x00\x00\x00\x00,@'
p2376
tp2377
Rp2378
S' Uganda'
p2379
S' Uganda'
p2380
(I22
I206
tp2381
(I29
I213
tp2382
tp2383
s(S'|What two companies '
p2384
S'|controversial milk-'
p2385
tp2386
(g4
(g8
S'\x00\x00\x00\x00\x00\x00F@'
p2387
tp2388
Rp2389
S'e bovine somatotrophin'
p2390
S'e bovine somatotrophin'
p2391
(I25
I34
tp2392
(I47
I56
tp2393
tp2394
s(S'|When will the Voyag'
p2395
S"|TV REVIEW;    'VOYA"
p2396
tp2397
(g4
(g8
S'\x00\x00\x00\x00\x00\x007@'
p2398
tp2399
Rp2400
S'en will the Voya|gers ||lo|s||||e| contact |with| Earth'
p2401
S'e| |i|n the Balance " demonstrates how all of the Earth'
p2402
(I2
I928
tp2403
(I46
I980
tp2404
tp2405
s(S'|How tall is the Eif'
p2406
S'|FRZ  France , EC . '
p2407
tp2408
(g4
(g8
S'\x00\x00\x00\x00\x00\x00&@'
p2409
tp2410
Rp2411
S'all is||| the Ei'
p2412
S'alysis .  The Fi'
p2413
(I5
I117
tp2414
(I18
I133
tp2415
tp2416
s(S'|Who was Johnny Math'
p2417
S'|View; Part E; Page '
p2418
tp2419
(g4
(g8
S'\x00\x00\x00\x00\x00\x00=@'
p2420
tp2421
Rp2422
S" wa|s Joh|nny Mathis' high school "
p2423
S' math  when I was i|n high school '
p2424
(I3
I4097
tp2425
(I35
I4130
tp2426
tp2427
s(S'|Who is the composer'
p2428
S'|AT Christmas 1892 ,'
p2429
tp2430
(g4
(g8
S'\x00\x00\x00\x00\x00\x00>@'
p2431
tp2432
Rp2433
S'ho ||i|s the composer |of |Eug|||ene On'
p2434
S'h| which the composer had long been| en'
p2435
(I1
I869
tp2436
(I32
I906
tp2437
tp2438
s(S'|Who was President o'
p2439
S'|LD0301221694 Tehran'
p2440
tp2441
(g4
(g8
S'\x00\x00\x00\x00\x00\x00L@'
p2442
tp2443
Rp2444
S' President of| Turkmenistan in '
p2445
S' president of  Turkmenistan in '
p2446
(I7
I171
tp2447
(I37
I202
tp2448
tp2449
s(S'|What hotel was used'
p2450
S'|WHEN YEARS , NOT DO'
p2451
tp2452
(g4
(g8
S'\x00\x00\x00\x00\x00\x80B@'
p2453
tp2454
Rp2455
S' Agatha Christie novel, |"And Then| There Were '
p2456
S' Agatha Christie have|| been| among ||its more '
p2457
(I40
I5958
tp2458
(I85
I6000
tp2459
tp2460
s(S'|What hotel was used'
p2461
S'|GLC rang back servi'
p2462
tp2463
(g4
(g8
S'\x00\x00\x00\x00\x00\x00*@'
p2464
tp2465
Rp2466
S'ing of the| Agatha| '
p2467
S'ing |better |||than '
p2468
(I30
I132
tp2469
(I48
I148
tp2470
tp2471
s(S'|How tall is the Eif'
p2472
S'|Part A; Page 2; Col'
p2473
tp2474
(g4
(g8
S'\x00\x00\x00\x00\x00\x80A@'
p2475
tp2476
Rp2477
S' tall is the Eiffel Tower'
p2478
S' t|op of the Eiffel Tower'
p2479
(I3
I271
tp2480
(I28
I295
tp2481
tp2482
s(S'|Where is Chicago?'
p2483
S'|CHICAGO   ILLINOIS '
p2484
tp2485
(g4
(g8
S'\x00\x00\x00\x00\x00\x001@'
p2486
tp2487
Rp2488
S're ||i|s Chicago'
p2489
S'r| which Chicago'
p2490
(I3
I732
tp2491
(I16
I747
tp2492
tp2493
s(S'|Which country has t'
p2494
S'|BRAZIL TRIES TO STO'
p2495
tp2496
(g4
(g8
S'\x00\x00\x00\x00\x00\x00I@'
p2497
tp2498
Rp2499
S' the |largest |part of th||||e|| Amazon rain| forest'
p2500
S' the southern flank of the great Amazon rain  forest'
p2501
(I17
I227
tp2502
(I60
I279
tp2503
tp2504
s(S'|Who is the composer'
p2505
S'|By MARTIN HOYLE   N'
p2506
tp2507
(g4
(g8
S'\x00\x00\x00\x00\x00\x00>@'
p2508
tp2509
Rp2510
S' the compo|ser |||||of Eugene Onegin'
p2511
S" the following night's Eugene Onegin"
p2512
(I6
I1636
tp2513
(I36
I1672
tp2514
tp2515
s(S'|What is the capital'
p2516
S'|[FE Docket No . 93&'
p2517
tp2518
(g4
(g8
S'\x00\x00\x00\x00\x00\x00;@'
p2519
tp2520
Rp2521
S'hat is th|e |capital of Wisconsin'
p2522
S'hat it |has gra|nt|||ed Wisconsin'
p2523
(I1
I314
tp2524
(I32
I342
tp2525
tp2526
s(S'|What is the capital'
p2527
S'|AB0901164594 Paris '
p2528
tp2529
(g4
(g8
S'\x00\x00\x00\x00\x00\x009@'
p2530
tp2531
Rp2532
S' capital of |||Ugand'
p2533
S' capital of Juba and'
p2534
(I11
I829
tp2535
(I28
I849
tp2536
tp2537
s(S'|What is the name of'
p2538
S'|By BERNARD SIMON   '
p2539
tp2540
(g4
(g8
S'\x00\x00\x00\x00\x00\x80K@'
p2541
tp2542
Rp2543
S'f the foreign mar|ine pe|st infesting the Great Lakes and a'
p2544
S'f the |grai|n |frei|ghters| |||plying the Great Lakes are a'
p2545
(I18
I577
tp2546
(I75
I628
tp2547
tp2548
s(S'|When did Nelson Man'
p2549
S'|PY0605013494 Madrid'
p2550
tp2551
(g4
(g8
S'\x00\x00\x00\x00\x00\x00A@'
p2552
tp2553
Rp2554
S'n| Mandela |become Presi||dent |of South Africa'
p2555
S'nd |and| a histo||||r||ic deed for South Africa'
p2556
(I14
I512
tp2557
(I56
I551
tp2558
tp2559
s(S'|Where is Chicago?'
p2560
S'|CHICAGO   A FLOOD i'
p2561
tp2562
(g4
(g8
S'\x00\x00\x00\x00\x00\x003@'
p2563
tp2564
Rp2565
S' is Chicago'
p2566
S' in Chicago'
p2567
(I5
I17
tp2568
(I16
I28
tp2569
tp2570
s(S'|How tall is the Sta'
p2571
S'|Part A; Page 1; Col'
p2572
tp2573
(g4
(g8
S'\x00\x00\x00\x00\x00\x80F@'
p2574
tp2575
Rp2576
S' tall is|| the| Statue of Liberty'
p2577
S' t||o |see the  Statue of Liberty'
p2578
(I3
I1441
tp2579
(I33
I1471
tp2580
tp2581
s(S'|What year was the M'
p2582
S'|MONTREAL   THREE se'
p2583
tp2584
(g4
(g8
S'\x00\x00\x00\x00\x00\x005@'
p2585
tp2586
Rp2587
S't year wa||s |the||| Magna Cart||a| signed'
p2588
S't |car parts maker , sa|ys ||it had signed'
p2589
(I3
I191
tp2590
(I36
I229
tp2591
tp2592
s(S'|Who was Johnny Math'
p2593
S'|CAL STATE FULLERTON'
p2594
tp2595
(g4
(g8
S'\x00\x00\x00\x00\x00\x00E@'
p2596
tp2597
Rp2598
S" Mathis' high| school track coach"
p2599
S' Ma||||r High  School track coach'
p2600
(I14
I1744
tp2601
(I46
I1773
tp2602
tp2603
s(S'|What is the number '
p2604
S'|By CANUTE JAMES   O'
p2605
tp2606
(g4
(g8
S'\x00\x00\x00\x00\x00\x00E@'
p2607
tp2608
Rp2609
S' the |||number of ||buffaloes thought to have been liv||ing i|n North America||| when Colu'
p2610
S" the tran|sfer of 'the values ||o||||||f ||western civilisation |||to America' . The| co|u"
p2611
(I7
I2009
tp2612
(I86
I2083
tp2613
tp2614
s(S'|How long does it ta'
p2615
S'|FAMILIAR PARIS     '
p2616
tp2617
(g4
(g8
S'\x00\x00\x00\x00\x00\x007@'
p2618
tp2619
Rp2620
S' long does ||i|t take to tr|||avel from Lon'
p2621
S' |o|f the| Seine |and No|tre Dame| from Pon'
p2622
(I3
I197
tp2623
(I40
I234
tp2624
tp2625
s(S'|What is the date of'
p2626
S'|By ARTHUR HELLYER  '
p2627
tp2628
(g4
(g8
S'\x00\x00\x00\x00\x00\x00H@'
p2629
tp2630
Rp2631
S' the Chelsea flower show'
p2632
S' the Chelsea flower show'
p2633
(I19
I32
tp2634
(I43
I56
tp2635
tp2636
s(S'|What hotel was used'
p2637
S'|Calendar; Part F; P'
p2638
tp2639
(g4
(g8
S'\x00\x00\x00\x00\x00\x00C@'
p2640
tp2641
Rp2642
S'ti|ng of the Agatha Christie'
p2643
S'tion| of|||| Agatha Christie'
p2644
(I29
I2851
tp2645
(I56
I2874
tp2646
tp2647
s(S'|What two companies '
p2648
S'|&sect;94 .1(d)(1) .'
p2649
tp2650
(g4
(g8
S'\x00\x00\x00\x00\x00\x007@'
p2651
tp2652
Rp2653
S' two compa|nies produce| bovin|||e so'
p2654
S' the c|||asei|n produced |||in the wo'
p2655
(I4
I3745
tp2656
(I36
I3775
tp2657
tp2658
s(S'|Where is Bolivia?'
p2659
S'|By STEPHEN FIDLER ,'
p2660
tp2661
(g4
(g8
S'\x00\x00\x00\x00\x00\x005@'
p2662
tp2663
Rp2664
S'e is Bolivia'
p2665
S'e in Bolivia'
p2666
(I4
I273
tp2667
(I16
I285
tp2668
tp2669
s(S'|The Faroes are a pa'
p2670
S'|Turkish Air Strikes'
p2671
tp2672
(g4
(g8
S'\x00\x00\x00\x00\x00\x00E@'
p2673
tp2674
Rp2675
S'he Faro|e|s are a part |of what no|rthern European countr'
p2676
S'he || overt and covert policies |of the|| European countr'
p2677
(I1
I1552
tp2678
(I54
I1604
tp2679
tp2680
s(S'|Which country has t'
p2681
S'|View; Part P; Page '
p2682
tp2683
(g4
(g8
S'\x00\x00\x00\x00\x00\x80G@'
p2684
tp2685
Rp2686
S' the largest part of the Amazon rain forest'
p2687
S' t|o |pr|es|||erving the Amazon rain forest'
p2688
(I17
I1213
tp2689
(I60
I1250
tp2690
tp2691
s(S"|Who was Lincoln's S"
p2692
S'|GBZ  United Kingdom'
p2693
tp2694
(g4
(g8
S'\x00\x00\x00\x00\x00\x00\x1c@'
p2695
tp2696
Rp2697
S' Lincoln'
p2698
S' Londo|n'
p2699
(I7
I220
tp2700
(I15
I227
tp2701
tp2702
s(S'|When were the first'
p2703
S'|Part A; Page 26; Co'
p2704
tp2705
(g4
(g8
S'\x00\x00\x00\x00\x00\x80C@'
p2706
tp2707
Rp2708
S'en we|re the fir|||s|||||||t f|ree elections|||||| held in|||| the ne'
p2709
S'en|ce of the |proposal calls for|| elections to be held under  the |e'
p2710
(I2
I585
tp2711
(I49
I649
tp2712
tp2713
s(S'|What is the capital'
p2714
S'|Sports; Part A; Pag'
p2715
tp2716
(g4
(g8
S'\x00\x00\x00\x00\x00\x00>@'
p2717
tp2718
Rp2719
S't is the| capi|tal of Michigan'
p2720
S't in the  nation .    Michigan'
p2721
(I3
I323
tp2722
(I31
I353
tp2723
tp2724
s(S'|Which country has t'
p2725
S'|Business; Part A; P'
p2726
tp2727
(g4
(g8
S'\x00\x00\x00\x00\x00\x80G@'
p2728
tp2729
Rp2730
S' country has the larg|est part o||f the Amazon rain forest'
p2731
S' co|ntrovers|ial  highway thr||ough the Amazon rain forest'
p2732
(I5
I253
tp2733
(I60
I307
tp2734
tp2735
s(S'|What is the shape o'
p2736
S'|Part A; Page 31; Co'
p2737
tp2738
(g4
(g8
S'\x00\x00\x00\x00\x00\x000@'
p2739
tp2740
Rp2741
S"e| of||| a porpoise|s'| tooth"
p2742
S"ed after a susp|||ect's tooth"
p2743
(I16
I181
tp2744
(I39
I207
tp2745
tp2746
s(S"|What is the world's"
p2747
S'|UN report said .  T'
p2748
tp2749
(g4
(g8
S'\x00\x00\x00\x00\x00\x00$@'
p2750
tp2751
Rp2752
S'ation'
p2753
S'ation'
p2754
(I25
I46
tp2755
(I30
I51
tp2756
tp2757
s(S"|What was Malcolm X'"
p2758
S'|View; Part P; Page '
p2759
tp2760
(g4
(g8
S'\x00\x00\x00\x00\x00\x009@'
p2761
tp2762
Rp2763
S" Malcolm |||X's| |||original sur"
p2764
S" Malcolm Forbes' memor||i|al ser"
p2765
(I8
I150
tp2766
(I33
I179
tp2767
tp2768
s(S"|Who was Lincoln's S"
p2769
S'|Metro; Part B; Page'
p2770
tp2771
(g4
(g8
S'\x00\x00\x00\x00\x00\x00<@'
p2772
tp2773
Rp2774
S" Lincoln's Secretary |o"
p2775
S" Lincoln's |||we|ary co"
p2776
(I7
I2229
tp2777
(I29
I2248
tp2778
tp2779
s(S'|What date in 1989 d'
p2780
S'|Part A; Page 24; Co'
p2781
tp2782
(g4
(g8
S'\x00\x00\x00\x00\x00\x00A@'
p2783
tp2784
Rp2785
S' East Germany open the '
p2786
S' East Germans ||in the '
p2787
(I21
I1708
tp2788
(I44
I1729
tp2789
tp2790
s(S'|What year was the M'
p2791
S'|IT WAS , as Hexham '
p2792
tp2793
(g4
(g8
S'\x00\x00\x00\x00\x00\x00A@'
p2794
tp2795
Rp2796
S' the Magna Carta '
p2797
S' the Magna Carta '
p2798
(I13
I995
tp2799
(I30
I1012
tp2800
tp2801
s(S'|Who was President o'
p2802
S'|LD0101145594 Moscow'
p2803
tp2804
(g4
(g8
S'\x00\x00\x00\x00\x00\x80C@'
p2805
tp2806
Rp2807
S'as Presiden|||t|||| of Turkmenistan '
p2808
S'an president stayed in Turkmenistan '
p2809
(I5
I1144
tp2810
(I34
I1180
tp2811
tp2812
s(S'|What two companies '
p2813
S'|the United States f'
p2814
tp2815
(g4
(g8
S'\x00\x00\x00\x00\x00\x007@'
p2816
tp2817
Rp2818
S' two compa|nies produce| bovin|||e so'
p2819
S' the c|||asei|n produced |||in the wo'
p2820
(I4
I1614
tp2821
(I36
I1644
tp2822
tp2823
s(S'|Which atlantic hurr'
p2824
S'|THE NATION      Sil'
p2825
tp2826
(g4
(g8
S'\x00\x00\x00\x00\x00\x009@'
p2827
tp2828
Rp2829
S'h| |atlantic hurricane had the| highest recor|ded |wind '
p2830
S'he Nation|al Hurricane  Cent|er |i||||n |Florid|a sai|d '
p2831
(I4
I392
tp2832
(I55
I438
tp2833
tp2834
s(S'|When were the first'
p2835
S'|Part A; Page 16; Co'
p2836
tp2837
(g4
(g8
S'\x00\x00\x00\x00\x00\x00F@'
p2838
tp2839
Rp2840
S' the new Republic of Hungary'
p2841
S' th|||e| Republic of Hungary'
p2842
(I42
I745
tp2843
(I70
I769
tp2844
tp2845
s(S'|Who created the boa'
p2846
S'|LONDON CLUBS , the '
p2847
tp2848
(g4
(g8
S'\x00\x00\x00\x00\x00\x003@'
p2849
tp2850
Rp2851
S' created |||the b'
p2852
S' created partly b'
p2853
(I3
I1510
tp2854
(I17
I1527
tp2855
tp2856
s(S'|What is the name of'
p2857
S'|By ARTHUR HELLYER  '
p2858
tp2859
(g4
(g8
S'\x00\x00\x00\x00\x00\x00B@'
p2860
tp2861
Rp2862
S' the| ||na|||m||e of the| foreign|| marine |||pest |infesting th|e Great Lakes ||and associat|ed waterways| since '
p2863
S' they attack many o||ther |||plants beside grape|| vin|es|| . This |pest ha||s been| |||o|n the| |increa|se since '
p2864
(I7
I3599
tp2865
(I101
I3692
tp2866
tp2867
s(S'|What is the shape o'
p2868
S'|By NIKKI TAIT   Gui'
p2869
tp2870
(g4
(g8
S'\x00\x00\x00\x00\x00\x003@'
p2871
tp2872
Rp2873
S'at is the |sha||pe|| of ||a porp'
p2874
S'ay in the management of the comp'
p2875
(I2
I379
tp2876
(I27
I411
tp2877
tp2878
s(S'|Which country has t'
p2879
S'|Calendar; Part P; P'
p2880
tp2881
(g4
(g8
S'\x00\x00\x00\x00\x00\x00O@'
p2882
tp2883
Rp2884
S' the largest part of the Amazon rain forest'
p2885
S' the |||he||||art of the Amazon rain forest'
p2886
(I17
I198
tp2887
(I60
I234
tp2888
tp2889
s(S"|What is the world's"
p2890
S'|attributed to bette'
p2891
tp2892
(g4
(g8
S'\x00\x00\x00\x00\x00\x80H@'
p2893
tp2894
Rp2895
S"is| the world's population"
p2896
S"ise the world's population"
p2897
(I5
I2020
tp2898
(I30
I2046
tp2899
tp2900
s(S'|How tall is the Sta'
p2901
S'|Calendar; Part F; P'
p2902
tp2903
(g4
(g8
S'\x00\x00\x00\x00\x00\x00H@'
p2904
tp2905
Rp2906
S' tall |is| the Statue of| Liberty'
p2907
S' sail past the Statue of  Liberty'
p2908
(I3
I5520
tp2909
(I33
I5553
tp2910
tp2911
s(S'|What hotel was used'
p2912
S'|MICKEY MOUSE NAMED '
p2913
tp2914
(g4
(g8
S'\x00\x00\x00\x00\x00\x80B@'
p2915
tp2916
Rp2917
S'the| Agatha Christie no'
p2918
S't|er Agatha Christie |o'
p2919
(I37
I202
tp2920
(I59
I223
tp2921
tp2922
s(S"|Who was Lincoln's S"
p2923
S'|AGENCY :     Securi'
p2924
tp2925
(g4
(g8
S'\x00\x00\x00\x00\x00\x00=@'
p2926
tp2927
Rp2928
S' Secretary of St'
p2929
S' Secretary of |t'
p2930
(I17
I1179
tp2931
(I33
I1194
tp2932
tp2933
s(S'|How tall is the Sta'
p2934
S'|TWO MONTHS TO LIVE;'
p2935
tp2936
(g4
(g8
S'\x00\x00\x00\x00\x00\x009@'
p2937
tp2938
Rp2939
S'tall is the Statue of L'
p2940
S'tall |s||||||tatue of L'
p2941
(I4
I1458
tp2942
(I27
I1474
tp2943
tp2944
s(S'|What is the capital'
p2945
S'|EAST AFRICA   Ugand'
p2946
tp2947
(g4
(g8
S'\x00\x00\x00\x00\x00\x007@'
p2948
tp2949
Rp2950
S't is the capit|al of Ugan'
p2951
S't in the c|entral African'
p2952
(I3
I412
tp2953
(I27
I436
tp2954
tp2955
s(S'|How long is the App'
p2956
S'|National Forest , A'
p2957
tp2958
(g4
(g8
S'\x00\x00\x00\x00\x00\x00C@'
p2959
tp2960
Rp2961
S'ong is the Appalachian Tra|i'
p2962
S'ons of the Appalachian |Nati'
p2963
(I5
I1089
tp2964
(I32
I1116
tp2965
tp2966
s(S'|How many lives were'
p2967
S'|CAIRO   President H'
p2968
tp2969
(g4
(g8
S'\x00\x00\x00\x00\x00\x80K@'
p2970
tp2971
Rp2972
S'es were lost i|n |the Pan Am crash in||||||| Lockerbie|, Scotland'
p2973
S'e| |e|xplos||ion of a Pan Am ||airliner over Lockerbie , Scotland'
p2974
(I12
I433
tp2975
(I67
I491
tp2976
tp2977
s(S'|Who was the first p'
p2978
S'|ISAAC ASIMOV : MOON'
p2979
tp2980
(g4
(g8
S'\x00\x00\x00\x00\x00\x00@@'
p2981
tp2982
Rp2983
S'a|s th||e first person to set foot on the moon'
p2984
S'ans there |i|s| |||||n||o ||| |air on the moon'
p2985
(I5
I1962
tp2986
(I48
I1994
tp2987
tp2988
s(S'|What year was the M'
p2989
S'|PORTUGAL      `Nort'
p2990
tp2991
(g4
(g8
S'\x00\x00\x00\x00\x00\x002@'
p2992
tp2993
Rp2994
S' year |was the '
p2995
S' year " in the '
p2996
(I4
I168
tp2997
(I18
I183
tp2998
tp2999
s(S'|How long does it ta'
p3000
S'|By MICHAEL SKAPINKE'
p3001
tp3002
(g4
(g8
S'\x00\x00\x00\x00\x00\x80I@'
p3003
tp3004
Rp3005
S' trave|l|| |||from London |to Paris via the Chunnel'
p3006
S' traveller between London and Paris ||, the Channel'
p3007
(I24
I42
tp3008
(I68
I91
tp3009
tp3010
s(S'|Where is Bolivia?'
p3011
S'|By SALLY BOWEN   Li'
p3012
tp3013
(g4
(g8
S'\x00\x00\x00\x00\x00\x004@'
p3014
tp3015
Rp3016
S're is Bolivia'
p3017
S're of Bolivia'
p3018
(I3
I2716
tp3019
(I16
I2729
tp3020
tp3021
s(S'|Which atlantic hurr'
p3022
S'|HURRICANE HEADS WES'
p3023
tp3024
(g4
(g8
S'\x00\x00\x00\x00\x00\x007@'
p3025
tp3026
Rp3027
S' |atlantic hurricane had the| highe||st recorded |wind '
p3028
S' Nation|al Hurricane |Cent|er |forecast||e||r||s sai|d '
p3029
(I5
I243
tp3030
(I55
I287
tp3031
tp3032
s(S'|Who is the CEO of G'
p3033
S'|By MARTIN DICKSON  '
p3034
tp3035
(g4
(g8
S'\x00\x00\x00\x00\x00\x00D@'
p3036
tp3037
Rp3038
S' the |||CEO of|||| General Electric'
p3039
S' the assets of its General Electric'
p3040
(I6
I387
tp3041
(I34
I422
tp3042
tp3043
s(S'|What is the capital'
p3044
S'|Part A; Page 22; Co'
p3045
tp3046
(g4
(g8
S'\x00\x00\x00\x00\x00\x006@'
p3047
tp3048
Rp3049
S' capital||| ||of Wisconsin'
p3050
S' |ap||ology from Wisconsin'
p3051
(I11
I209
tp3052
(I32
I232
tp3053
tp3054
s(S'|When will the Voyag'
p3055
S'|By CLIVE COOKSON   '
p3056
tp3057
(g4
(g8
S'\x00\x00\x00\x00\x00\x00>@'
p3058
tp3059
Rp3060
S'ers lose contact with Earth'
p3061
S'e|s |o|f |impact with Earth'
p3062
(I19
I3334
tp3063
(I46
I3357
tp3064
tp3065
s(S'|What is the capital'
p3066
S'|Part A; Page 1; Col'
p3067
tp3068
(g4
(g8
S'\x00\x00\x00\x00\x00\x005@'
p3069
tp3070
Rp3071
S'e cap||ital|| ||of Michigan'
p3072
S'escaped felon from Michigan'
p3073
(I10
I159
tp3074
(I31
I186
tp3075
tp3076
s(S'|Who was President o'
p3077
S'|LD0601115994 Tehran'
p3078
tp3079
(g4
(g8
S'\x00\x00\x00\x00\x00\x00C@'
p3080
tp3081
Rp3082
S'en|||t of| Turkmenistan in| '
p3083
S'enefit of  Turkmenistan and '
p3084
(I14
I530
tp3085
(I37
I558
tp3086
tp3087
s(S"|What is the world's"
p3088
S'|By HILARY DE BOERR '
p3089
tp3090
(g4
(g8
S'\x00\x00\x00\x00\x00\x00H@'
p3091
tp3092
Rp3093
S"t is the world's population"
p3094
S"t of the world's population"
p3095
(I3
I1443
tp3096
(I30
I1470
tp3097
tp3098
s(S'|What is the capital'
p3099
S'|View; Part P; Page '
p3100
tp3101
(g4
(g8
S'\x00\x00\x00\x00\x00\x00@@'
p3102
tp3103
Rp3104
S' the |ca||pit|||al of Wisconsin'
p3105
S' the head pitchman in Wisconsin'
p3106
(I7
I215
tp3107
(I32
I246
tp3108
tp3109
s(S'|Where is Bolivia?'
p3110
S'|OW1105153794 Beijin'
p3111
tp3112
(g4
(g8
S'\x00\x00\x00\x00\x00\x000@'
p3113
tp3114
Rp3115
S' Bolivia'
p3116
S' Bolivia'
p3117
(I8
I162
tp3118
(I16
I170
tp3119
tp3120
s(S'|When were the first'
p3121
S'|BUDAPEST   Former c'
p3122
tp3123
(g4
(g8
S'\x00\x00\x00\x00\x00\x00B@'
p3124
tp3125
Rp3126
S'ns held in the |ne|w Republic '
p3127
S'nd only in the Czech Republic '
p3128
(I32
I1018
tp3129
(I60
I1048
tp3130
tp3131
s(S'|What is the shape o'
p3132
S'|50 CFR Part 651    '
p3133
tp3134
(g4
(g8
S'\x00\x00\x00\x00\x00\x00@@'
p3135
tp3136
Rp3137
S"t is the |s||hape| of|||| |a|||| porpoises' to"
p3138
S't of the estimates of the harbor porpoise   po'
p3139
(I3
I3188
tp3140
(I36
I3234
tp3141
tp3142
s(S'|How many lives were'
p3143
S'|But it turned out t'
p3144
tp3145
(g4
(g8
S'\x00\x00\x00\x00\x00\x008@'
p3146
tp3147
Rp3148
S'r|e| lost in th|e Pan Am crash in'
p3149
S"rned |out||| that Pan Am|||'s| in"
p3150
(I17
I9
tp3151
(I47
I34
tp3152
tp3153
s(S'|How many lives were'
p3154
S'|WORLD;    PRINCE CH'
p3155
tp3156
(g4
(g8
S'\x00\x00\x00\x00\x00\x00<@'
p3157
tp3158
Rp3159
S' the Pan Am cr||ash in Lockerbie|, '
p3160
S' the ||| ||streets| of Lockerbie , '
p3161
(I27
I708
tp3162
(I59
I737
tp3163
tp3164
s(S"|Who was Lincoln's S"
p3165
S'|Margaret H . McFarl'
p3166
tp3167
(g4
(g8
S'\x00\x00\x00\x00\x00\x006@'
p3168
tp3169
Rp3170
S' Secretary '
p3171
S' Secretary '
p3172
(I17
I37
tp3173
(I28
I48
tp3174
tp3175
s(S'|What is the shape o'
p3176
S'|OW1904134194 Beijin'
p3177
tp3178
(g4
(g8
S'\x00\x00\x00\x00\x00\x007@'
p3179
tp3180
Rp3181
S" is the shape o|f |||a porpoise||||||s'| tooth"
p3182
S" is the s|||econd time for| the Buddha's tooth"
p3183
(I4
I798
tp3184
(I39
I840
tp3185
tp3186
s(S'|Where is Chicago?'
p3187
S'|THE closure of the '
p3188
tp3189
(g4
(g8
S'\x00\x00\x00\x00\x00\x005@'
p3190
tp3191
Rp3192
S'ere| is Chicago'
p3193
S'ened in Chicago'
p3194
(I2
I303
tp3195
(I16
I318
tp3196
tp3197
s(S'|What is the capital'
p3198
S'|By GEORGE GRAHAM   '
p3199
tp3200
(g4
(g8
S'\x00\x00\x00\x00\x00\x00:@'
p3201
tp3202
Rp3203
S' the||||| ca|p|ital of Michigan'
p3204
S' the Bush campai|gn in Michigan'
p3205
(I7
I1060
tp3206
(I31
I1090
tp3207
tp3208
s(S'|What is the world r'
p3209
S'|Sports; Part P; Pag'
p3210
tp3211
(g4
(g8
S'\x00\x00\x00\x00\x00\x80@@'
p3212
tp3213
Rp3214
S' is the world record time for '
p3215
S' |set|| world record||||s for '
p3216
(I4
I2383
tp3217
(I34
I2406
tp3218
tp3219
s(S'|What is the date of'
p3220
S'|CONTEMPLATING the f'
p3221
tp3222
(g4
(g8
S'\x00\x00\x00\x00\x00\x00>@'
p3223
tp3224
Rp3225
S't is the |||||d|||ate of the Che||lsea flower'
p3226
S't at the hybrids but| at the ||earlier flower'
p3227
(I3
I2497
tp3228
(I38
I2539
tp3229
tp3230
s(S'|What is the capital'
p3231
S'|Thomas F . Farrell '
p3232
tp3233
(g4
(g8
S'\x00\x00\x00\x00\x00\x006@'
p3234
tp3235
Rp3236
S't is the capital of Wisconsin'
p3237
S't |    , La|ona| |, Wisconsin'
p3238
(I3
I1505
tp3239
(I32
I1530
tp3240
tp3241
s(S'|How long is the App'
p3242
S'|CURRENTS : A GUIDE '
p3243
tp3244
(g4
(g8
S'\x00\x00\x00\x00\x00\x001@'
p3245
tp3246
Rp3247
S' |long is the Ap'
p3248
S' along||| the sp'
p3249
(I3
I179
tp3250
(I18
I192
tp3251
tp3252
s(S'|Who is the CEO of G'
p3253
S'|KUALA LUMPUR   Gene'
p3254
tp3255
(g4
(g8
S'\x00\x00\x00\x00\x00\x00A@'
p3256
tp3257
Rp3258
S' General Electric'
p3259
S' General Electric'
p3260
(I17
I14
tp3261
(I34
I31
tp3262
tp3263
s(S'|Which country has t'
p3264
S'|Calendar; Part F; P'
p3265
tp3266
(g4
(g8
S'\x00\x00\x00\x00\x00\x80N@'
p3267
tp3268
Rp3269
S' the largest part of the Amazon rain| forest'
p3270
S' the |||he||||art of the Amazon rain  forest'
p3271
(I17
I287
tp3272
(I60
I324
tp3273
tp3274
s(S'|Where is Chicago?'
p3275
S'|STANLEY CUP PLAYOFF'
p3276
tp3277
(g4
(g8
S'\x00\x00\x00\x00\x00\x001@'
p3278
tp3279
Rp3280
S' |i|s Chicago'
p3281
S' with Chicago'
p3282
(I5
I866
tp3283
(I16
I879
tp3284
tp3285
s(S'|How long does it ta'
p3286
S'|be a showpiece for '
p3287
tp3288
(g4
(g8
S'\x00\x00\x00\x00\x00\x00?@'
p3289
tp3290
Rp3291
S' to Paris| via the Chunnel'
p3292
S' to |a||sk why the Chunnel'
p3293
(I43
I2151
tp3294
(I68
I2174
tp3295
tp3296
s(S'|What is the shape o'
p3297
S'|OW2704121094 Beijin'
p3298
tp3299
(g4
(g8
S'\x00\x00\x00\x00\x00\x003@'
p3300
tp3301
Rp3302
S't i|s|| the sha|pe| ||o|f |a por'
p3303
S'tries , the s|acred tooth of Lor'
p3304
(I3
I834
tp3305
(I26
I865
tp3306
tp3307
s(S'|Who was the first p'
p3308
S'|Metro; Part B; Page'
p3309
tp3310
(g4
(g8
S'\x00\x00\x00\x00\x00\x00;@'
p3311
tp3312
Rp3313
S' t|he first perso||||n to |set foot ||on|| the moon'
p3314
S' tide |i|s| p|r|oduced by the| full moon . The moon'
p3315
(I7
I630
tp3316
(I48
I675
tp3317
tp3318
s(S'|What is the capital'
p3319
S'|In response to Mr .'
p3320
tp3321
(g4
(g8
S'\x00\x00\x00\x00\x00\x80A@'
p3322
tp3323
Rp3324
S'at is th|e capital of Wisconsin'
p3325
S'a| in this pa|rt|| of Wisconsin'
p3326
(I2
I900
tp3327
(I32
I927
tp3328
tp3329
s(S'|How long is the App'
p3330
S'|Metro; Part B; Page'
p3331
tp3332
(g4
(g8
S'\x00\x00\x00\x00\x00\x006@'
p3333
tp3334
Rp3335
S' long is the| '
p3336
S' long as they '
p3337
(I3
I1913
tp3338
(I16
I1927
tp3339
tp3340
s(S'|What is the capital'
p3341
S'|Sports; Part C; Pag'
p3342
tp3343
(g4
(g8
S'\x00\x00\x00\x00\x00\x00A@'
p3344
tp3345
Rp3346
S' the |capital of Wisconsin'
p3347
S' the sta||t|e of Wisconsin'
p3348
(I7
I2406
tp3349
(I32
I2429
tp3350
tp3351
s(S"|What was Malcolm X'"
p3352
S'|MALCOLM by Bruce Pe'
p3353
tp3354
(g4
(g8
S'\x00\x00\x00\x00\x00\x00<@'
p3355
tp3356
Rp3357
S't was Malcolm '
p3358
S't was Malcolm '
p3359
(I3
I1759
tp3360
(I17
I1773
tp3361
tp3362
s(S'|The symptoms of Par'
p3363
S'|By CLIVE COOKSON   '
p3364
tp3365
(g4
(g8
S'\x00\x00\x00\x00\x00\x00P@'
p3366
tp3367
Rp3368
S"he sympto|||ms||| of Parkinson's disease ||are| linked to the d||||e|mise |o|||||f cells "
p3369
S"he |||progression of Parkinson's disease by reducin|||||g the damage done to brain cells "
p3370
(I1
I4706
tp3371
(I70
I4787
tp3372
tp3373
s(S'|Who is the composer'
p3374
S'|touch sullied (by a'
p3375
tp3376
(g4
(g8
S'\x00\x00\x00\x00\x00\x000@'
p3377
tp3378
Rp3379
S' the| compos|er| of '
p3380
S' |her ||m|astery of '
p3381
(I6
I66
tp3382
(I23
I82
tp3383
tp3384
s(S'|How long is the App'
p3385
S'|THE NATION      A d'
p3386
tp3387
(g4
(g8
S'\x00\x00\x00\x00\x00\x80G@'
p3388
tp3389
Rp3390
S'ong is the Appalachian Trail'
p3391
S'on| |, the Appalachian Trail'
p3392
(I5
I462
tp3393
(I33
I488
tp3394
tp3395
s(S'|Who created the boa'
p3396
S'|Calendar; Part F; P'
p3397
tp3398
(g4
(g8
S'\x00\x00\x00\x00\x00\x00:@'
p3399
tp3400
Rp3401
S'ed the||||||| board game '
p3402
S'es the actual board game '
p3403
(I9
I789
tp3404
(I27
I814
tp3405
tp3406
s(S'|What hotel was used'
p3407
S'|WINE NOTES : TWO MA'
p3408
tp3409
(g4
(g8
S'\x00\x00\x00\x00\x00\x00?@'
p3410
tp3411
Rp3412
S' for a setting of the Agatha Christie '
p3413
S' For|| details on the||||||| Christie '
p3414
(I19
I1330
tp3415
(I57
I1359
tp3416
tp3417
s(S'|Who created the boa'
p3418
S'|By CHRISTOPHER PRIC'
p3419
tp3420
(g4
(g8
S'\x00\x00\x00\x00\x00\x00=@'
p3421
tp3422
Rp3423
S'eated the|||||||||| board game '
p3424
S'ented the growth in board game '
p3425
(I6
I781
tp3426
(I27
I812
tp3427
tp3428
s(S'|The Faroes are a pa'
p3429
S'|backed by EC loans '
p3430
tp3431
(g4
(g8
S'\x00\x00\x00\x00\x00\x00:@'
p3432
tp3433
Rp3434
S'e| |a pa|rt| of ||wha||t northern European '
p3435
S'el ca|pacity in exchange fo||||r| European '
p3436
(I13
I553
tp3437
(I48
I590
tp3438
tp3439
s(S'|Where is Chicago?'
p3440
S"|CHICAGO   Chicago's"
p3441
tp3442
(g4
(g8
S'\x00\x00\x00\x00\x00\x003@'
p3443
tp3444
Rp3445
S' is Chicago'
p3446
S' in Chicago'
p3447
(I5
I324
tp3448
(I16
I335
tp3449
tp3450
s(S'|Who is the CEO of G'
p3451
S'|from the other FCA '
p3452
tp3453
(g4
(g8
S'\x00\x00\x00\x00\x00\x004@'
p3454
tp3455
Rp3456
S' the |||CEO of General'
p3457
S' the Inspector General'
p3458
(I6
I2214
tp3459
(I25
I2236
tp3460
tp3461
s(S'|What is the shape o'
p3462
S'|BK2706083594 Phnom '
p3463
tp3464
(g4
(g8
S'\x00\x00\x00\x00\x00\x001@'
p3465
tp3466
Rp3467
S' is the ||shape of '
p3468
S' in the Wes|||t of '
p3469
(I4
I263
tp3470
(I21
I279
tp3471
tp3472
s(S'|What is the shape o'
p3473
S'|DEPARTMENT OF COMME'
p3474
tp3475
(g4
(g8
S'\x00\x00\x00\x00\x00\x00A@'
p3476
tp3477
Rp3478
S" the sha|pe of |a|||| porpoise|s' t"
p3479
S' the status of harbor porpoise in t'
p3480
(I7
I1900
tp3481
(I35
I1935
tp3482
tp3483
s(S'|When will the Voyag'
p3484
S'|By TIM COONE   WERE'
p3485
tp3486
(g4
(g8
S'\x00\x00\x00\x00\x00\x00<@'
p3487
tp3488
Rp3489
S'ers lose|| contact w'
p3490
S'els rose , contact w'
p3491
(I19
I1111
tp3492
(I37
I1131
tp3493
tp3494
s(S"|Who was Lincoln's S"
p3495
S'|Part A; Page 1; Col'
p3496
tp3497
(g4
(g8
S'\x00\x00\x00\x00\x00\x00;@'
p3498
tp3499
Rp3500
S" was Lincoln's "
p3501
S" |as Lincoln's "
p3502
(I3
I2263
tp3503
(I18
I2277
tp3504
tp3505
s(S'|When will the Voyag'
p3506
S'|By ALICE RAWSTHORN '
p3507
tp3508
(g4
(g8
S'\x00\x00\x00\x00\x00\x005@'
p3509
tp3510
Rp3511
S'll the Voyagers lo'
p3512
S'll |Go Voyage|s to'
p3513
(I7
I468
tp3514
(I25
I484
tp3515
tp3516
s(S'|What is the number '
p3517
S'|AMERICAN HISTORY , '
p3518
tp3519
(g4
(g8
S'\x00\x00\x00\x00\x00\x00?@'
p3520
tp3521
Rp3522
S' the number of buffaloes thought |to have be|en |living in |North| America|| ||when Columbus la'
p3523
S' the Qu|een of ||||, yes , Spain ! I have never understood why the Itali|ans claim  Columbus Da'
p3524
(I7
I529
tp3525
(I93
I618
tp3526
tp3527
s(S'|Who is the CEO of G'
p3528
S'|Business; Part D; P'
p3529
tp3530
(g4
(g8
S'\x00\x00\x00\x00\x00\x80A@'
p3531
tp3532
Rp3533
S'of General Electric'
p3534
S'om General Electric'
p3535
(I15
I526
tp3536
(I34
I545
tp3537
tp3538
s(S'|What year was the M'
p3539
S"|HE'LL TURN 90 DIREC"
p3540
tp3541
(g4
(g8
S'\x00\x00\x00\x00\x00\x000@'
p3542
tp3543
Rp3544
S'ear |was the Magna| '
p3545
S'e|r , at the Harman '
p3546
(I6
I242
tp3547
(I24
I261
tp3548
tp3549
s(S'|How tall is the Eif'
p3550
S'|Part P; Page 2; Col'
p3551
tp3552
(g4
(g8
S'\x00\x00\x00\x00\x00\x00A@'
p3553
tp3554
Rp3555
S' the Eiffel Tower'
p3556
S' the Eiffel Tower'
p3557
(I11
I159
tp3558
(I28
I176
tp3559
tp3560
s(S"|Who was Lincoln's S"
p3561
S'|Part A; Page 4; Col'
p3562
tp3563
(g4
(g8
S'\x00\x00\x00\x00\x00\x00:@'
p3564
tp3565
Rp3566
S" Lincoln's Se|cre|tary of"
p3567
S" Lincoln's desire for| |f"
p3568
(I7
I501
tp3569
(I30
I524
tp3570
tp3571
s(S"|What was Malcolm X'"
p3572
S'|Magazine; Page 4B; '
p3573
tp3574
(g4
(g8
S'\x00\x00\x00\x00\x00\x00<@'
p3575
tp3576
Rp3577
S"hat was Malcolm X's "
p3578
S"hat|||| Malcolm X's "
p3579
(I1
I95
tp3580
(I21
I111
tp3581
tp3582
s(S'|Who was the first p'
p3583
S'|NEWSMAKERS : MOON T'
p3584
tp3585
(g4
(g8
S'\x00\x00\x00\x00\x00\x80D@'
p3586
tp3587
Rp3588
S' set foot on| the moon'
p3589
S' set foot on  the moon'
p3590
(I27
I607
tp3591
(I48
I629
tp3592
tp3593
s(S'|When were the first'
p3594
S'|Part A; Page 14; Co'
p3595
tp3596
(g4
(g8
S'\x00\x00\x00\x00\x00\x80E@'
p3597
tp3598
Rp3599
S' were the first free elections held in the ne|w Re'
p3600
S' with the ||act||ual elections held |lat|e next ye'
p3601
(I4
I1789
tp3602
(I53
I1833
tp3603
tp3604
s(S'|What is the capital'
p3605
S'|INTERSTATE COMMERCE'
p3606
tp3607
(g4
(g8
S'\x00\x00\x00\x00\x00\x008@'
p3608
tp3609
Rp3610
S' the |capital |of Wisconsin'
p3611
S' t|o gra|nt|| to| Wisconsin'
p3612
(I7
I199
tp3613
(I32
I221
tp3614
tp3615
s(S'|Who was Johnny Math'
p3616
S'|Sports; Part 3; Pag'
p3617
tp3618
(g4
(g8
S'\x00\x00\x00\x00\x00\x008@'
p3619
tp3620
Rp3621
S"thi|s' |high| school|| ||tra|||ck coach"
p3622
S"t|ies| as the school's gymnastics coach"
p3623
(I17
I2060
tp3624
(I46
I2097
tp3625
tp3626
s(S'|What year was the M'
p3627
S'|Earlier , Henry I w'
p3628
tp3629
(g4
(g8
S'\x00\x00\x00\x00\x00\x003@'
p3630
tp3631
Rp3632
S' year||| was the '
p3633
S' Henry I was the '
p3634
(I4
I9
tp3635
(I18
I26
tp3636
tp3637
s(S'|What is the capital'
p3638
S'|Sports; Part P; Pag'
p3639
tp3640
(g4
(g8
S'\x00\x00\x00\x00\x00\x00:@'
p3641
tp3642
Rp3643
S'ital of Michigan'
p3644
S'it|y of Michigan'
p3645
(I15
I184
tp3646
(I31
I199
tp3647
tp3648
s(S'|How many lives were'
p3649
S'|FOUO     22 March 1'
p3650
tp3651
(g4
(g8
S'\x00\x00\x00\x00\x00\x00H@'
p3652
tp3653
Rp3654
S'in|| the Pan Am cra||||||sh||||||||| |||in Lockerbie|, Scotland'
p3655
S'inst the Pan Am plane which exploded over  Lockerbie , Scotland'
p3656
(I25
I564
tp3657
(I67
I627
tp3658
tp3659
s(S'|Who is the CEO of G'
p3660
S'|From Mr LEO HERZEL '
p3661
tp3662
(g4
(g8
S'\x00\x00\x00\x00\x00\x006@'
p3663
tp3664
Rp3665
S' is th|e CEO |of Gen'
p3666
S' is that CEO co|mpen'
p3667
(I3
I1094
tp3668
(I21
I1113
tp3669
tp3670
s(S'|When will the Voyag'
p3671
S'|NEPTUNE CAN BE AS C'
p3672
tp3673
(g4
(g8
S'\x00\x00\x00\x00\x00\x00E@'
p3674
tp3675
Rp3676
S' Voyager|s |lose ||co|ntact with '
p3677
S" Voyager's close encount|er with "
p3678
(I13
I1731
tp3679
(I41
I1763
tp3680
tp3681
s(S'|What is the shape o'
p3682
S'|OTC denture cleanse'
p3683
tp3684
(g4
(g8
S'\x00\x00\x00\x00\x00\x00,@'
p3685
tp3686
Rp3687
S" |of a| por|poises' tooth"
p3688
S' for an |artificial tooth'
p3689
(I17
I328
tp3690
(I39
I352
tp3691
tp3692
s(S'|How tall is the Sta'
p3693
S'|HOT CORNER FOR MEMO'
p3694
tp3695
(g4
(g8
S'\x00\x00\x00\x00\x00\x004@'
p3696
tp3697
Rp3698
S'i|s the Statue| of '
p3699
S'ies |of statues of '
p3700
(I9
I500
tp3701
(I26
I518
tp3702
tp3703
s(S'|Who is the composer'
p3704
S'|Calendar; Page 39B;'
p3705
tp3706
(g4
(g8
S'\x00\x00\x00\x00\x00\x004@'
p3707
tp3708
Rp3709
S' composer '
p3710
S' composer '
p3711
(I10
I3490
tp3712
(I20
I3500
tp3713
tp3714
s(S'|Which country has t'
p3715
S'|MORNING REPORT : MO'
p3716
tp3717
(g4
(g8
S'\x00\x00\x00\x00\x00\x00K@'
p3718
tp3719
Rp3720
S' the la|rgest| part of the Amazon rain forest'
p3721
S' the battle to sa|||ve the Amazon rain forest'
p3722
(I17
I435
tp3723
(I60
I477
tp3724
tp3725
s(S'|How long does it ta'
p3726
S'|Part A; Page 5; Col'
p3727
tp3728
(g4
(g8
S'\x00\x00\x00\x00\x00\x00D@'
p3729
tp3730
Rp3731
S'es it ||||take to travel from|||||||||| London '
p3732
S'e| it possible to travel from Paris to  London '
p3733
(I11
I1590
tp3734
(I44
I1636
tp3735
tp3736
s(S'|What is the shape o'
p3737
S'|GERMANY      Schoen'
p3738
tp3739
(g4
(g8
S'\x00\x00\x00\x00\x00\x009@'
p3740
tp3741
Rp3742
S"at| is the shape of a||| porpoises' tooth"
p3743
S'ate |. |We ||are || also |oppo|se|d to th'
p3744
(I2
I1457
tp3745
(I39
I1489
tp3746
tp3747
s(S"|Who was Lincoln's S"
p3748
S'|Part A; Page 3; Col'
p3749
tp3750
(g4
(g8
S'\x00\x00\x00\x00\x00\x002@'
p3751
tp3752
Rp3753
S'as|| Lincoln'
p3754
S'ased Lincoln'
p3755
(I5
I662
tp3756
(I15
I674
tp3757
tp3758
s(S'|When will the Voyag'
p3759
S'|VOYAGER 2 AIMS TO E'
p3760
tp3761
(g4
(g8
S'\x00\x00\x00\x00\x00\x80B@'
p3762
tp3763
Rp3764
S'en will th|||e Voyager|s lo||se '
p3765
S"e| will change Voyager's course "
p3766
(I2
I6687
tp3767
(I28
I6718
tp3768
tp3769
s(S'|What is the number '
p3770
S'|By STEPHEN FIDLER  '
p3771
tp3772
(g4
(g8
S'\x00\x00\x00\x00\x00\x00F@'
p3773
tp3774
Rp3775
S' the number of buffaloes thought to have been |||living||| in No||rth America wh||e|||n|||||||| Columbus landed '
p3776
S' the number||||||||||||s |cou||||ld have been much hi|gher or lower - |wer||e there long before Columbus tipped '
p3777
(I7
I1594
tp3778
(I98
I1685
tp3779
tp3780
s(S'|Who was the first p'
p3781
S'|Sports; Part C; Pag'
p3782
tp3783
(g4
(g8
S'\x00\x00\x00\x00\x00\x00>@'
p3784
tp3785
Rp3786
S' was the first pe||||r||son| to se|t |f|||||oot |on the mo|||on'
p3787
S' was the |most |embarrassing mo|ment of my life , " the Houston'
p3788
(I3
I419
tp3789
(I48
I479
tp3790
tp3791
s(S'|How tall is the Sta'
p3792
S'|Part A; Page 24; Co'
p3793
tp3794
(g4
(g8
S'\x00\x00\x00\x00\x00\x00F@'
p3795
tp3796
Rp3797
S' the Statue of Liberty'
p3798
S' the Statue of Liberty'
p3799
(I11
I375
tp3800
(I33
I397
tp3801
tp3802
s(S'|Who was the first p'
p3803
S'|Calendar; Part F; P'
p3804
tp3805
(g4
(g8
S'\x00\x00\x00\x00\x00\x80@@'
p3806
tp3807
Rp3808
S' the first |person|||||||| ||to set|| foot on the| '
p3809
S" the first astr|onauts I'd ever met . Most of them "
p3810
(I7
I2755
tp3811
(I44
I2805
tp3812
tp3813
s(S'|Who is the composer'
p3814
S'|stand out in relief'
p3815
tp3816
(g4
(g8
S'\x00\x00\x00\x00\x00\x004@'
p3817
tp3818
Rp3819
S'o| ||i|s the co|mposer||| of Euge||n|||e |On|e'
p3820
S'ot quite the |outpo|uring of |feeling we wante'
p3821
(I2
I602
tp3822
(I33
I645
tp3823
tp3824
s(S'|What is the capital'
p3825
S'|of a new Michigan D'
p3826
tp3827
(g4
(g8
S'\x00\x00\x00\x00\x00\x80@@'
p3828
tp3829
Rp3830
S'at is th|e capital of Michigan'
p3831
S'at|ed that copi|es of Michigan'
p3832
(I2
I2319
tp3833
(I31
I2347
tp3834
tp3835
s(S'|How tall is the Eif'
p3836
S'|I do not often sit '
p3837
tp3838
(g4
(g8
S'\x00\x00\x00\x00\x00\x00A@'
p3839
tp3840
Rp3841
S' the Eiffel Tower'
p3842
S' the Eiffel Tower'
p3843
(I11
I2398
tp3844
(I28
I2415
tp3845
tp3846
s(S'|What is the name of'
p3847
S'|AGENCY :     Depart'
p3848
tp3849
(g4
(g8
S'\x00\x00\x00\x00\x00\x80H@'
p3850
tp3851
Rp3852
S' th|e foreign marin|e pest infesting||| the Great Lakes |an'
p3853
S' this no|tice |a|nnounces| a meeting of the Great Lakes Pan'
p3854
(I19
I1767
tp3855
(I72
I1822
tp3856
tp3857
s(S'|What is the world r'
p3858
S'|Westside; Part J; P'
p3859
tp3860
(g4
(g8
S'\x00\x00\x00\x00\x00\x00@@'
p3861
tp3862
Rp3863
S'at is the world ||record time |for||||| ||runni|||ng||| |one mi||le w||h|||ile| juggl'
p3864
S'al is the |o|ne time o|f t|he year that Gar||field gets to|| mingle with  other juggl'
p3865
(I2
I1340
tp3866
(I62
I1417
tp3867
tp3868
s(S'|When were the first'
p3869
S'|World Report; Part '
p3870
tp3871
(g4
(g8
S'\x00\x00\x00\x00\x00\x00E@'
p3872
tp3873
Rp3874
S' free elections||| |h||eld in the ne'
p3875
S' free elections by the end of the ye'
p3876
(I19
I2533
tp3877
(I49
I2569
tp3878
tp3879
s(S'|What is the number '
p3880
S'|Calendar; Part F; P'
p3881
tp3882
(g4
(g8
S'\x00\x00\x00\x00\x00\x00;@'
p3883
tp3884
Rp3885
S't is the |number of buffaloes thought to have been liv'
p3886
S't of the resolution bu||||||t thought t||h||e ||an|niv'
p3887
(I3
I1911
tp3888
(I56
I1952
tp3889
tp3890
s(S"|What is the world's"
p3891
S'|NORTHEAST ASIA   Ja'
p3892
tp3893
(g4
(g8
S'\x00\x00\x00\x00\x00\x80E@'
p3894
tp3895
Rp3896
S"hat is the world's population"
p3897
S'hat||| the world|| population'
p3898
(I1
I2263
tp3899
(I30
I2287
tp3900
tp3901
s(S'|How tall is the Eif'
p3902
S'|SAILING ON SEINE : '
p3903
tp3904
(g4
(g8
S'\x00\x00\x00\x00\x00\x00A@'
p3905
tp3906
Rp3907
S' the Eiffel Tower'
p3908
S' the Eiffel Tower'
p3909
(I11
I2350
tp3910
(I28
I2367
tp3911
tp3912
s(S'|When were the first'
p3913
S'|Part A; Page 11; Co'
p3914
tp3915
(g4
(g8
S'\x00\x00\x00\x00\x00\x00J@'
p3916
tp3917
Rp3918
S' |the first free elections|||||||||| held in the new Republic of Hun'
p3919
S' othe|||r|| free elections have been held in the |Soviet Bloc || |un'
p3920
(I9
I1839
tp3921
(I66
I1898
tp3922
tp3923
s(S'|How tall is the Sta'
p3924
S'|CNZ  China , Asia .'
p3925
tp3926
(g4
(g8
S'\x00\x00\x00\x00\x00\x00"@'
p3927
tp3928
Rp3929
S'tall is th|e'
p3930
S'tabl|is||hme'
p3931
(I4
I61
tp3932
(I15
I70
tp3933
tp3934
s(S'|What is the name of'
p3935
S'|River , north of th'
p3936
tp3937
(g4
(g8
S'\x00\x00\x00\x00\x00\x00H@'
p3938
tp3939
Rp3940
S'at |i|s the name of|| the foreign marine| pest i||nfest|ing the Great Lakes an'
p3941
S'an will |be|n||e||fit the |Hudson ||River |e|nvironment and the Great Lakes en'
p3942
(I2
I1153
tp3943
(I72
I1220
tp3944
tp3945
s(S'|What two companies '
p3946
S'|This rule adds Germ'
p3947
tp3948
(g4
(g8
S'\x00\x00\x00\x00\x00\x007@'
p3949
tp3950
Rp3951
S' two compa|nies produce| bovin|||e so'
p3952
S' the c|||asei|n produced |||in the wo'
p3953
(I4
I2458
tp3954
(I36
I2488
tp3955
tp3956
s(S'|Where is Bolivia?'
p3957
S'|Titicaca , I , too '
p3958
tp3959
(g4
(g8
S'\x00\x00\x00\x00\x00\x001@'
p3960
tp3961
Rp3962
S're |i||s Bolivia'
p3963
S'ry since Bolivia'
p3964
(I3
I901
tp3965
(I16
I917
tp3966
tp3967
s(S'|The Faroes are a pa'
p3968
S'|NORDIC COUNTRIES   '
p3969
tp3970
(g4
(g8
S'\x00\x00\x00\x00\x00\x00K@'
p3971
tp3972
Rp3973
S' are a||| part| of what northern Europe|||an cou'
p3974
S' are also part  of||||| northern Europe . Of cou'
p3975
(I10
I7530
tp3976
(I51
I7573
tp3977
tp3978
s(S'|What is the capital'
p3979
S'|St . , Oshkosh , Wi'
p3980
tp3981
(g4
(g8
S'\x00\x00\x00\x00\x00\x004@'
p3982
tp3983
Rp3984
S' Wisconsin'
p3985
S' Wisconsin'
p3986
(I22
I16
tp3987
(I32
I26
tp3988
tp3989
s(S'|Who was the first p'
p3990
S'|Magazine; Page 36E;'
p3991
tp3992
(g4
(g8
S'\x00\x00\x00\x00\x00\x004@'
p3993
tp3994
Rp3995
S'the first| person|| to s||et foot on the'
p3996
S't|e wi||th personal message| |and in|t|e'
p3997
(I8
I448
tp3998
(I43
I481
tp3999
tp4000
s(S'|Who was President o'
p4001
S'|LD2504104894 Tehran'
p4002
tp4003
(g4
(g8
S'\x00\x00\x00\x00\x00\x00@@'
p4004
tp4005
Rp4006
S' Pr|esident of| Turkmenistan'
p4007
S' trans|fe|r of  Turkmenistan'
p4008
(I7
I848
tp4009
(I33
I874
tp4010
tp4011
s(S'|What is the date of'
p4012
S'|By JANE FULLER   MA'
p4013
tp4014
(g4
(g8
S'\x00\x00\x00\x00\x00\x00E@'
p4015
tp4016
Rp4017
S't is the date of the| Chelsea '
p4018
S't as the date||| when Chelsea '
p4019
(I3
I37
tp4020
(I32
I64
tp4021
tp4022
s(S'|How many lives were'
p4023
S'|Business; Part A; P'
p4024
tp4025
(g4
(g8
S'\x00\x00\x00\x00\x00\x007@'
p4026
tp4027
Rp4028
S' in Lockerbie'
p4029
S' on Lockerbie'
p4030
(I44
I847
tp4031
(I57
I860
tp4032
tp4033
s(S'|What is the number '
p4034
S'|Sports; Part C; Pag'
p4035
tp4036
(g4
(g8
S'\x00\x00\x00\x00\x00\x80@@'
p4037
tp4038
Rp4039
S' is the |number|||| |of buffaloes thought |to |have been living in|| North |Ame||r|i|||ca |when|||| Columbus |land|||ed in 149'
p4040
S' as the Whizzer led the Buffaloes t|o| an 8-0 start ||in 1937 , and  for|| Hale Irwin , a defensive back who gra|duated in 1|9'
p4041
(I4
I6613
tp4042
(I104
I6731
tp4043
tp4044
s(S'|What is the world r'
p4045
S"|O'SULLIVAN HOPES TO"
p4046
tp4047
(g4
(g8
S'\x00\x00\x00\x00\x00\x80B@'
p4048
tp4049
Rp4050
S' world record| time for running one mile '
p4051
S' world record-holde|||r ||||in| the mile '
p4052
(I11
I78
tp4053
(I51
I111
tp4054
tp4055
s(S'|What is the number '
p4056
S'|Part P; Page 2; Col'
p4057
tp4058
(g4
(g8
S'\x00\x00\x00\x00\x00\x00=@'
p4059
tp4060
Rp4061
S'th| America| when Columbus land'
p4062
S'the |arrival ||of Columbus |and'
p4063
(I66
I993
tp4064
(I95
I1020
tp4065
tp4066
s(S"|What is the world's"
p4067
S'|INTERNATIONAL AFFAI'
p4068
tp4069
(g4
(g8
S'\x00\x00\x00\x00\x00\x00G@'
p4070
tp4071
Rp4072
S" the world's population"
p4073
S" the world's population"
p4074
(I7
I432
tp4075
(I30
I455
tp4076
tp4077
s(S'|How tall is the Sta'
p4078
S'|REGIONAL AFFAIRS   '
p4079
tp4080
(g4
(g8
S'\x00\x00\x00\x00\x00\x00G@'
p4081
tp4082
Rp4083
S's the Statue of Liberty'
p4084
S's the Statue of Liberty'
p4085
(I10
I311
tp4086
(I33
I334
tp4087
tp4088
s(S'|How long does it ta'
p4089
S'|GBZ  United Kingdom'
p4090
tp4091
(g4
(g8
S'\x00\x00\x00\x00\x00\x001@'
p4092
tp4093
Rp4094
S' London to Pa'
p4095
S' London||| Pa'
p4096
(I36
I178
tp4097
(I49
I188
tp4098
tp4099
s(S"|What is the world's"
p4100
S'|NEW YORK   Worldwid'
p4101
tp4102
(g4
(g8
S'\x00\x00\x00\x00\x00\x00I@'
p4103
tp4104
Rp4105
S"t| is the world's population"
p4106
S"th in the world's population"
p4107
(I3
I151
tp4108
(I30
I179
tp4109
tp4110
s(S'|Who was Johnny Math'
p4111
S'|CITY 4-A BASEBALL P'
p4112
tp4113
(g4
(g8
S'\x00\x00\x00\x00\x00\x00;@'
p4114
tp4115
Rp4116
S"is||' high school "
p4117
S'ision high school '
p4118
(I19
I143
tp4119
(I35
I161
tp4120
tp4121
s(S'|When did Nelson Man'
p4122
S'|ANNEX   Cuba      G'
p4123
tp4124
(g4
(g8
S'\x00\x00\x00\x00\x00\x00I@'
p4125
tp4126
Rp4127
S' Nelson| Mandel||a|||||| ||||be|co||||||me |||Pre|sident| of South Africa'
p4128
S' Nelson  Mandela and his people constitute the reali|||ty of South Africa'
p4129
(I8
I318
tp4130
(I56
I388
tp4131
tp4132
s(S'|What year was the M'
p4133
S'|By BERNARD SIMON   '
p4134
tp4135
(g4
(g8
S'\x00\x00\x00\x00\x00\x003@'
p4136
tp4137
Rp4138
S't| |year was the Magna Ca|rta'
p4139
S"th Ame|rica' ||. Magna |alrea"
p4140
(I3
I1407
tp4141
(I29
I1432
tp4142
tp4143
s(S'|Where is Bolivia?'
p4144
S'|PY0704023994 Santia'
p4145
tp4146
(g4
(g8
S'\x00\x00\x00\x00\x00\x002@'
p4147
tp4148
Rp4149
S'er||e |i|s Bolivia'
p4150
S'eroa  with Bolivia'
p4151
(I2
I1079
tp4152
(I16
I1097
tp4153
tp4154
s(S'|Who is the CEO of G'
p4155
S'|BRIEFLY      Genera'
p4156
tp4157
(g4
(g8
S'\x00\x00\x00\x00\x00\x80D@'
p4158
tp4159
Rp4160
S' the CEO of General Electric'
p4161
S' the ||two| General Electric'
p4162
(I6
I428
tp4163
(I34
I453
tp4164
tp4165
s(S'|What is the capital'
p4166
S'|ENVIRONMENTAL PROTE'
p4167
tp4168
(g4
(g8
S'\x00\x00\x00\x00\x00\x00B@'
p4169
tp4170
Rp4171
S't is the |capital of Wisconsin'
p4172
S'thin the Sta||t|e of Wisconsin'
p4173
(I3
I1114
tp4174
(I32
I1141
tp4175
tp4176
s(S'|Who is the composer'
p4177
S'|opera-goers through'
p4178
tp4179
(g4
(g8
S'\x00\x00\x00\x00\x00\x00,@'
p4180
tp4181
Rp4182
S'ho is the '
p4183
S'h| as the '
p4184
(I1
I303
tp4185
(I11
I312
tp4186
tp4187
s(S'|Where is Chicago?'
p4188
S'|Calendar; Part P; P'
p4189
tp4190
(g4
(g8
S'\x00\x00\x00\x00\x00\x002@'
p4191
tp4192
Rp4193
S'e is Chicago'
p4194
S'e of Chicago'
p4195
(I4
I190
tp4196
(I16
I202
tp4197
tp4198
s(S'|What is the date of'
p4199
S'|CFAC , the former C'
p4200
tp4201
(g4
(g8
S'\x00\x00\x00\x00\x00\x006@'
p4202
tp4203
Rp4204
S' the date of the| Chelsea '
p4205
S' th|||||e |former Chelsea '
p4206
(I7
I6
tp4207
(I32
I26
tp4208
tp4209
s(S'|How many lives were'
p4210
S'|NATION;    FLYING D'
p4211
tp4212
(g4
(g8
S'\x00\x00\x00\x00\x00\x00K@'
p4213
tp4214
Rp4215
S'st in the |Pa|n Am crash||||| in Lockerbie|,| Scotland'
p4216
S's| in the crash of Flight 103 in Lockerbie ,  Scotland'
p4217
(I22
I565
tp4218
(I67
I618
tp4219
tp4220
s(S'|Who created the boa'
p4221
S'|THE POLICE and the '
p4222
tp4223
(g4
(g8
S'\x00\x00\x00\x00\x00\x003@'
p4224
tp4225
Rp4226
S'eated the board game Pict|ion'
p4227
S'ected t|o start late next mon'
p4228
(I6
I747
tp4229
(I34
I775
tp4230
tp4231
s(S'|Where is Bolivia?'
p4232
S'|and 16 conceded . T'
p4233
tp4234
(g4
(g8
S'\x00\x00\x00\x00\x00\x002@'
p4235
tp4236
Rp4237
S' |is Bolivia'
p4238
S' him Bolivia'
p4239
(I5
I564
tp4240
(I16
I576
tp4241
tp4242
s(S'|What is the number '
p4243
S'|HOME , HOME ON THE '
p4244
tp4245
(g4
(g8
S'\x00\x00\x00\x00\x00\x80D@'
p4246
tp4247
Rp4248
S' buffaloes |t|hought to| have been living in North| '
p4249
S' buffaloes still get top |||| b|||il|ling in |||the '
p4250
(I21
I3083
tp4251
(I69
I3124
tp4252
tp4253
s(S'|What is the world r'
p4254
S'|ETHIOPIAN WALTZES T'
p4255
tp4256
(g4
(g8
S'\x00\x00\x00\x00\x00\x00C@'
p4257
tp4258
Rp4259
S's the world record '
p4260
S's the world record '
p4261
(I6
I2380
tp4262
(I25
I2399
tp4263
tp4264
s(S'|The Faroes are a pa'
p4265
S'|OW1705095294 Beijin'
p4266
tp4267
(g4
(g8
S'\x00\x00\x00\x00\x00\x006@'
p4268
tp4269
Rp4270
S' |o|f what northern European countr'
p4271
S' hope that |||the|| |two|||| countr'
p4272
(I21
I657
tp4273
(I54
I682
tp4274
tp4275
s(S"|What was Malcolm X'"
p4276
S'|SLOVAKIA      Ethni'
p4277
tp4278
(g4
(g8
S'\x00\x00\x00\x00\x00\x005@'
p4279
tp4280
Rp4281
S'rigin|||||al| surname'
p4282
S'rizing female surname'
p4283
(I22
I1322
tp4284
(I37
I1343
tp4285
tp4286
s(S'|Where is Chicago?'
p4287
S'|By BARBARA DURR    '
p4288
tp4289
(g4
(g8
S'\x00\x00\x00\x00\x00\x004@'
p4290
tp4291
Rp4292
S're is Chicago'
p4293
S'rr in Chicago'
p4294
(I3
I215
tp4295
(I16
I228
tp4296
tp4297
s(S'|How tall is the Eif'
p4298
S'|WILL WEST AND THE W'
p4299
tp4300
(g4
(g8
S'\x00\x00\x00\x00\x00\x00B@'
p4301
tp4302
Rp4303
S'll |i|s the Eiffel Tower'
p4304
S'lt like the Eiffel Tower'
p4305
(I6
I1000
tp4306
(I28
I1024
tp4307
tp4308
s(S"|What is the world's"
p4309
S'|STEEP INCREASES in '
p4310
tp4311
(g4
(g8
S'\x00\x00\x00\x00\x00\x80A@'
p4312
tp4313
Rp4314
S"a|t| is the| world's population"
p4315
S'anticipat|es world|| population'
p4316
(I2
I270
tp4317
(I30
I298
tp4318
tp4319
s(S'|When were the first'
p4320
S'|HUNGARY      Electi'
p4321
tp4322
(g4
(g8
S'\x00\x00\x00\x00\x00\x00J@'
p4323
tp4324
Rp4325
S'e| the first|||||| |f||ree elections||||||||| held in the|| |new Republic '
p4326
S'ed the first round of the  elections at party headquart|ers in|| Republic '
p4327
(I8
I446
tp4328
(I60
I517
tp4329
tp4330
s(S'|What date in 1989 d'
p4331
S'|Part P; Page 1; Col'
p4332
tp4333
(g4
(g8
S'\x00\x00\x00\x00\x00\x80C@'
p4334
tp4335
Rp4336
S'ate |in 1989 did East Germany||||||||||||| |||open the Berlin Wall'
p4337
S'ate directly |to West Germany , including  through the Berlin Wall'
p4338
(I6
I378
tp4339
(I55
I443
tp4340
tp4341
s(S'|Where is Chicago?'
p4342
S'|BARENBOIM CONFIRMED'
p4343
tp4344
(g4
(g8
S'\x00\x00\x00\x00\x00\x006@'
p4345
tp4346
Rp4347
S'er|||e is Chicago'
p4348
S'erence in Chicago'
p4349
(I2
I1032
tp4350
(I16
I1049
tp4351
tp4352
s(S'|What two companies '
p4353
S'|By REUTER      NEW '
p4354
tp4355
(g4
(g8
S'\x00\x00\x00\x00\x00\x007@'
p4356
tp4357
Rp4358
S't| two companies |pr|oduce bovi||n|e '
p4359
S"ts the company's corporate ||finance "
p4360
(I3
I301
tp4361
(I34
I336
tp4362
tp4363
s(S'|Who was the first p'
p4364
S'|Calendar; Page 49D;'
p4365
tp4366
(g4
(g8
S'\x00\x00\x00\x00\x00\x00C@'
p4367
tp4368
Rp4369
S' the first p|||e|||rson |to| |set foot ||on| the '
p4370
S' the first place -- to| stop them from using the '
p4371
(I7
I3193
tp4372
(I44
I3241
tp4373
tp4374
s(S'|Who was the first p'
p4375
S'|Part A; Page 2; Col'
p4376
tp4377
(g4
(g8
S'\x00\x00\x00\x00\x00\x80C@'
p4378
tp4379
Rp4380
S' was the first person to set foot on the moon'
p4381
S' |as the first |||man||||||| |||| on the moon'
p4382
(I3
I226
tp4383
(I48
I256
tp4384
tp4385
s(S'|What hotel was used'
p4386
S'|edge off his best v'
p4387
tp4388
(g4
(g8
S'\x00\x00\x00\x00\x00\x80E@'
p4389
tp4390
Rp4391
S'at hotel was used|| for ||a setti|ng ||of |||the Agatha Christie '
p4392
S'at|io||n mis||sed , the trans|ition| from simple Agatha Christie '
p4393
(I2
I1079
tp4394
(I57
I1137
tp4395
tp4396
s(S'|What is the capital'
p4397
S'|MILWAUKEE   WISCONS'
p4398
tp4399
(g4
(g8
S'\x00\x00\x00\x00\x00\x00<@'
p4400
tp4401
Rp4402
S' the ca|pi|||||||||tal of Wisconsin'
p4403
S' the backing of most|| of Wisconsin'
p4404
(I7
I2514
tp4405
(I32
I2547
tp4406
tp4407
s(S"|What was Malcolm X'"
p4408
S'|YOUR FAMILY TREE ! '
p4409
tp4410
(g4
(g8
S'\x00\x00\x00\x00\x00\x008@'
p4411
tp4412
Rp4413
S"t was Malcolm X's |or|iginal||| surname"
p4414
S't was |a||||| ||| north-English surname'
p4415
(I3
I692
tp4416
(I37
I722
tp4417
tp4418
s(S"|What was Malcolm X'"
p4419
S'|Part A; Page 16; Co'
p4420
tp4421
(g4
(g8
S'\x00\x00\x00\x00\x00\x00:@'
p4422
tp4423
Rp4424
S" Malcolm X's "
p4425
S" Malcolm X's "
p4426
(I8
I348
tp4427
(I21
I361
tp4428
tp4429
s(S'|How long does it ta'
p4430
S'|By CHARLES BATCHELO'
p4431
tp4432
(g4
(g8
S'\x00\x00\x00\x00\x00\x80B@'
p4433
tp4434
Rp4435
S' travel |||from London to Paris '
p4436
S' travel between London |, Paris '
p4437
(I24
I219
tp4438
(I53
I250
tp4439
tp4440
s(S"|What was Malcolm X'"
p4441
S'|(b) X itself has_  '
p4442
tp4443
(g4
(g8
S'\x00\x00\x00\x00\x00\x00,@'
p4444
tp4445
Rp4446
S'hat was Ma'
p4447
S'hat has |a'
p4448
(I1
I5209
tp4449
(I11
I5218
tp4450
tp4451
s(S'|Who was President o'
p4452
S'|BK0306133694 Jakart'
p4453
tp4454
(g4
(g8
S'\x00\x00\x00\x00\x00\x80C@'
p4455
tp4456
Rp4457
S'ent of| Turkmenistan '
p4458
S'ent of  Turkmenistan '
p4459
(I14
I284
tp4460
(I34
I305
tp4461
tp4462
s(S'|How long is the App'
p4463
S"|'MOUNTAIN MAN' RECE"
p4464
tp4465
(g4
(g8
S'\x00\x00\x00\x00\x00\x00I@'
p4466
tp4467
Rp4468
S' |long is the Appalachian Trail'
p4469
S' along||| the Appalachian Trail'
p4470
(I3
I470
tp4471
(I33
I498
tp4472
tp4473
s(S'|How long is the App'
p4474
S'|Travel; Part L; Pag'
p4475
tp4476
(g4
(g8
S'\x00\x00\x00\x00\x00\x005@'
p4477
tp4478
Rp4479
S' the Appal|achian| Trail'
p4480
S' the ||p|lea||sant trail'
p4481
(I11
I3183
tp4482
(I33
I3202
tp4483
tp4484
s(S'|When will the Voyag'
p4485
S'|Part A; Page 1; Col'
p4486
tp4487
(g4
(g8
S'\x00\x00\x00\x00\x00\x009@'
p4488
tp4489
Rp4490
S' the Voyager|s |lose |||co'
p4491
S' The Voyager 2 probe disco'
p4492
(I9
I174
tp4493
(I30
I200
tp4494
tp4495
s(S'|How long does it ta'
p4496
S'|By STUART MARSHALL '
p4497
tp4498
(g4
(g8
S'\x00\x00\x00\x00\x00\x00>@'
p4499
tp4500
Rp4501
S'ng does |it ||take| to travel from |London to Par|is |via the Chunnel'
p4502
S'ng cars and lorries to ||a|nd from mainlan||d Europe . If the |tunnel'
p4503
(I6
I3155
tp4504
(I68
I3218
tp4505
tp4506
s(S'|What is the shape o'
p4507
S'|and 1992 . They urg'
p4508
tp4509
(g4
(g8
S'\x00\x00\x00\x00\x00\x80A@'
p4510
tp4511
Rp4512
S"at is the sha|pe of |a|||| porpoise|s' t"
p4513
S'at||e the status of harbor porpoise in t'
p4514
(I2
I826
tp4515
(I35
I864
tp4516
tp4517
s(S'|Who was the first p'
p4518
S'|94FE0107F Tokyo NIH'
p4519
tp4520
(g4
(g8
S'\x00\x00\x00\x00\x00\x00>@'
p4521
tp4522
Rp4523
S' |the first p|ers||on to set foot on the moon'
p4524
S' it||  ar|e pre|sumed to be|||||| on the moon'
p4525
(I7
I2548
tp4526
(I48
I2583
tp4527
tp4528
s(S'|Where is Bolivia?'
p4529
S"|LA PAZ   BOLIVIA'S "
p4530
tp4531
(g4
(g8
S'\x00\x00\x00\x00\x00\x005@'
p4532
tp4533
Rp4534
S'e is Bolivia'
p4535
S'e in Bolivia'
p4536
(I4
I616
tp4537
(I16
I628
tp4538
tp4539
s(S'|The Faroes are a pa'
p4540
S'|GBZ  United Kingdom'
p4541
tp4542
(g4
(g8
S'\x00\x00\x00\x00\x00\x00,@'
p4543
tp4544
Rp4545
S' Europe'
p4546
S' Europe'
p4547
(I38
I74
tp4548
(I45
I81
tp4549
tp4550
s(S"|What is the world's"
p4551
S'|Opinion; Part M; Pa'
p4552
tp4553
(g4
(g8
S'\x00\x00\x00\x00\x00\x00=@'
p4554
tp4555
Rp4556
S" world's population"
p4557
S' World|| population'
p4558
(I11
I955
tp4559
(I30
I972
tp4560
tp4561
s(S'|When will the Voyag'
p4562
S'|METEORS , ECLIPSE W'
p4563
tp4564
(g4
(g8
S'\x00\x00\x00\x00\x00\x00<@'
p4565
tp4566
Rp4567
S'en will the Voyagers |lose c|||ontact with| '
p4568
S'er wi|||th| Voyager| , is| current|ly ||the '
p4569
(I2
I1426
tp4570
(I41
I1461
tp4571
tp4572
s(S'|Where is Bolivia?'
p4573
S'|From Mr PHILIP WHIT'
p4574
tp4575
(g4
(g8
S'\x00\x00\x00\x00\x00\x000@'
p4576
tp4577
Rp4578
S' Bolivia'
p4579
S' Bolivia'
p4580
(I8
I75
tp4581
(I16
I83
tp4582
tp4583
s(S'|What is the name of'
p4584
S'|Part A; Page 16; Co'
p4585
tp4586
(g4
(g8
S'\x00\x00\x00\x00\x00\x00G@'
p4587
tp4588
Rp4589
S'at |is|||||| th|e name of t|he||| forei|g|||||||||n mari||ne ||pest infesting the Great Lakes| '
p4590
S'at risk from this same||| type of fouling , " Levin sa|id .  "They  threaten| the Great Lakes\' '
p4591
(I2
I1464
tp4592
(I70
I1554
tp4593
tp4594
s(S'|How many lives were'
p4595
S'|FOUO     8 June 199'
p4596
tp4597
(g4
(g8
S'\x00\x00\x00\x00\x00\x00<@'
p4598
tp4599
Rp4600
S' many |lives were lo|st in |||the |Pan |Am |c||rash ||in||| Lockerbie, '
p4601
S' Pan| Am jet  e|xploded in flight over the Scottish town of Lockerbie| '
p4602
(I3
I918
tp4603
(I59
I986
tp4604
tp4605
s(S'|How tall is the Sta'
p4606
S'|TAIWAN      Chiang '
p4607
tp4608
(g4
(g8
S'\x00\x00\x00\x00\x00\x009@'
p4609
tp4610
Rp4611
S'all i||s the Statue of '
p4612
S'a|l|ized the statue on '
p4613
(I5
I610
tp4614
(I26
I631
tp4615
tp4616
s(S'|Where is Chicago?'
p4617
S'|CHICAGO   A weather'
p4618
tp4619
(g4
(g8
S'\x00\x00\x00\x00\x00\x006@'
p4620
tp4621
Rp4622
S're| is Chicago'
p4623
S'res in Chicago'
p4624
(I3
I462
tp4625
(I16
I476
tp4626
tp4627
s(S'|The Faroes are a pa'
p4628
S'|COPENHAGEN   THE in'
p4629
tp4630
(g4
(g8
S'\x00\x00\x00\x00\x00\x007@'
p4631
tp4632
Rp4633
S'he Faroes are a '
p4634
S'he Faroes ||, a '
p4635
(I1
I942
tp4636
(I17
I956
tp4637
tp4638
s(S'|The Faroes are a pa'
p4639
S'|FOZ  Faeroe Islands'
p4640
tp4641
(g4
(g8
S'\x00\x00\x00\x00\x00\x00,@'
p4642
tp4643
Rp4644
S' Europe'
p4645
S' Europe'
p4646
(I38
I26
tp4647
(I45
I33
tp4648
tp4649
s(S'|When did Nelson Man'
p4650
S'|SOUTHERN AFRICA   A'
p4651
tp4652
(g4
(g8
S'\x00\x00\x00\x00\x00\x00J@'
p4653
tp4654
Rp4655
S's|o|n Mandela| become President of South Africa'
p4656
S'sworn |in|| as |||the president of South Africa'
p4657
(I12
I1193
tp4658
(I56
I1234
tp4659
tp4660
s(S'|What date in 1989 d'
p4661
S'|Part A; Page 8; Col'
p4662
tp4663
(g4
(g8
S'\x00\x00\x00\x00\x00\x80E@'
p4664
tp4665
Rp4666
S' East Germany ||op||||en |the Berlin Wall'
p4667
S' East German| chips away at|| Berlin Wall'
p4668
(I21
I5232
tp4669
(I55
I5270
tp4670
tp4671
s(S'|What is the number '
p4672
S'|Magazine; Page 8B; '
p4673
tp4674
(g4
(g8
S'\x00\x00\x00\x00\x00\x00M@'
p4675
tp4676
Rp4677
S'faloes|| ||thought t|||o have been living in North America whe|n Columbu|||||s| landed|| in '
p4678
S'fa|cts . Although| there have been di|sag|reements | about where Columbus first landed , it '
p4679
(I25
I197
tp4680
(I101
I284
tp4681
tp4682
s(S'|What is the date of'
p4683
S'|When it comes to pe'
p4684
tp4685
(g4
(g8
S'\x00\x00\x00\x00\x00\x80I@'
p4686
tp4687
Rp4688
S' the ||da|te of the Chelsea flower show'
p4689
S' the remains of ||a Chelsea flower show'
p4690
(I7
I3186
tp4691
(I43
I3223
tp4692
tp4693
s(S'|Who is the CEO of G'
p4694
S'|By PATRICK MCCURRY '
p4695
tp4696
(g4
(g8
S'\x00\x00\x00\x00\x00\x00A@'
p4697
tp4698
Rp4699
S' General Electric'
p4700
S' General Electric'
p4701
(I17
I136
tp4702
(I34
I153
tp4703
tp4704
s(S'|How long is the App'
p4705
S'|Business; Part D; P'
p4706
tp4707
(g4
(g8
S'\x00\x00\x00\x00\x00\x80B@'
p4708
tp4709
Rp4710
S' i|s the Appalachian Tr'
p4711
S' in  the Appalachian |r'
p4712
(I8
I1807
tp4713
(I30
I1829
tp4714
tp4715
s(S'|When will the Voyag'
p4716
S'|TANTALIZING TASTE O'
p4717
tp4718
(g4
(g8
S'\x00\x00\x00\x00\x00\x00<@'
p4719
tp4720
Rp4721
S' the Voyagers lose contact|| w|ith '
p4722
S' The Voyager| ||spacecraft , which '
p4723
(I9
I1976
tp4724
(I41
I2008
tp4725
tp4726
s(S'|What is the capital'
p4727
S'|DEPARTMENT OF THE T'
p4728
tp4729
(g4
(g8
S'\x00\x00\x00\x00\x00\x008@'
p4730
tp4731
Rp4732
S' is| the capit|al of Wisconsin'
p4733
S'  south|-c|entral||| Wisconsin'
p4734
(I4
I3448
tp4735
(I32
I3473
tp4736
tp4737
s(S'|How tall is the Eif'
p4738
S'|By WILLIAM PACKER  '
p4739
tp4740
(g4
(g8
S'\x00\x00\x00\x00\x00\x00A@'
p4741
tp4742
Rp4743
S' the Eiffel Tower'
p4744
S' the Eiffel Tower'
p4745
(I11
I1216
tp4746
(I28
I1233
tp4747
tp4748
s(S'|Who is the composer'
p4749
S'|By RICHARD FAIRMAN '
p4750
tp4751
(g4
(g8
S'\x00\x00\x00\x00\x00\x80C@'
p4752
tp4753
Rp4754
S'ho |i|s| the co|mposer of Eugene Onegin'
p4755
S'he first |performance| of Eugene Onegin'
p4756
(I1
I61
tp4757
(I36
I98
tp4758
tp4759
s(S'|Who was Johnny Math'
p4760
S'|Sports; Part C; Pag'
p4761
tp4762
(g4
(g8
S'\x00\x00\x00\x00\x00\x00@@'
p4763
tp4764
Rp4765
S"ho was|||| |Johnny Math||is' high school track co"
p4766
S'he was a C student ||through high school , and co'
p4767
(I1
I4748
tp4768
(I43
I4795
tp4769
tp4770
s(S'|Who was President o'
p4771
S'|OW2404021094 Beijin'
p4772
tp4773
(g4
(g8
S'\x00\x00\x00\x00\x00\x80A@'
p4774
tp4775
Rp4776
S' was |President ||of Turkmenistan '
p4777
S' gas pipeli||ne from Turkmenistan '
p4778
(I3
I1160
tp4779
(I34
I1192
tp4780
tp4781
s(S'|How tall is the Sta'
p4782
S'|Calendar; Part P; P'
p4783
tp4784
(g4
(g8
S'\x00\x00\x00\x00\x00\x00;@'
p4785
tp4786
Rp4787
S' the Statue of '
p4788
S' the statue of '
p4789
(I11
I1120
tp4790
(I26
I1135
tp4791
tp4792
s(S'|When will the Voyag'
p4793
S'|Metro; Part B; Page'
p4794
tp4795
(g4
(g8
S'\x00\x00\x00\x00\x00\x008@'
p4796
tp4797
Rp4798
S'hen wil||l ||the||| Voyager|s |||lose| ||co|nt||||a|ct wi|th Earth'
p4799
S"he| ||last not|e of Voyager's Neptune  encounter fades |into |||th"
p4800
(I1
I987
tp4801
(I46
I1045
tp4802
tp4803
s(S'|How tall is the Sta'
p4804
S'|Opinion; Part M; Pa'
p4805
tp4806
(g4
(g8
S'\x00\x00\x00\x00\x00\x00>@'
p4807
tp4808
Rp4809
S'ow tall is the Statue of L||i||be'
p4810
S'ot tall |s||||||tatue of Lenin be'
p4811
(I1
I131
tp4812
(I30
I157
tp4813
tp4814
s(S'|The symptoms of Par'
p4815
S'|By CLIVE COOKSON an'
p4816
tp4817
(g4
(g8
S'\x00\x00\x00\x00\x00\x00E@'
p4818
tp4819
Rp4820
S" Parkinson's disease "
p4821
S" Parkinson's disease "
p4822
(I15
I535
tp4823
(I36
I556
tp4824
tp4825
s(S'|Which atlantic hurr'
p4826
S'|Part A; Page 4; Col'
p4827
tp4828
(g4
(g8
S'\x00\x00\x00\x00\x00\x00<@'
p4829
tp4830
Rp4831
S' hurricane ha|d t'
p4832
S' hurricane |and t'
p4833
(I14
I467
tp4834
(I30
I483
tp4835
tp4836
s(S'|The symptoms of Par'
p4837
S'|IN BRIEF : SCIENCE '
p4838
tp4839
(g4
(g8
S'\x00\x00\x00\x00\x00\x00E@'
p4840
tp4841
Rp4842
S'ease ar||e|| linked| ||to the demise |of cells in what |ar|||||ea|| of the '
p4843
S'e|se|archers linked  mito|chond|rial def||ects to ||a| rare disease of the '
p4844
(I31
I593
tp4845
(I90
I659
tp4846
tp4847
s(S'|Which country has t'
p4848
S'|OUTTAKES : CHICO , '
p4849
tp4850
(g4
(g8
S'\x00\x00\x00\x00\x00\x00J@'
p4851
tp4852
Rp4853
S'h co|u||nt|ry has the largest par|||||t of the Amazon rain forest'
p4854
S'h documentary|||| ||e||||ve|r p|roduced on the Amazon rain forest'
p4855
(I4
I501
tp4856
(I60
I554
tp4857
tp4858
s(S'|What hotel was used'
p4859
S'|The chaps in ITV wh'
p4860
tp4861
(g4
(g8
S'\x00\x00\x00\x00\x00\x00F@'
p4862
tp4863
Rp4864
S'hat |hotel |was used|||| for a setting of the Agat||ha Christie novel|, "And Then There| We|re'
p4865
S"hat sh||e| perverted the for|||||||||m of the British| |cri||me novel , |and ||in 'Re|el Secre"
p4866
(I1
I703
tp4867
(I84
I777
tp4868
tp4869
s(S'|Who created the boa'
p4870
S'|By DAVID SPANIER   '
p4871
tp4872
(g4
(g8
S'\x00\x00\x00\x00\x00\x008@'
p4873
tp4874
Rp4875
S'ated the board '
p4876
S'at|| the board '
p4877
(I7
I2569
tp4878
(I22
I2582
tp4879
tp4880
s(S'|Who is the CEO of G'
p4881
S'|good relationship b'
p4882
tp4883
(g4
(g8
S'\x00\x00\x00\x00\x00\x005@'
p4884
tp4885
Rp4886
S' is the CEO '
p4887
S' if the CEO '
p4888
(I3
I1329
tp4889
(I15
I1341
tp4890
tp4891
s(S'|Who was Johnny Math'
p4892
S'|PANEL ISSUES PLAN T'
p4893
tp4894
(g4
(g8
S'\x00\x00\x00\x00\x00\x00:@'
p4895
tp4896
Rp4897
S' high school '
p4898
S' high school '
p4899
(I22
I1044
tp4900
(I35
I1057
tp4901
tp4902
s(S'|How long is the App'
p4903
S'|David Gaines , Trai'
p4904
tp4905
(g4
(g8
S'\x00\x00\x00\x00\x00\x00.@'
p4906
tp4907
Rp4908
S'ng is the Appalac||||||hian Trail'
p4909
S'ng at the ||office of th||e Trail'
p4910
(I6
I291
tp4911
(I33
I320
tp4912
tp4913
s(S'|What is the date of'
p4914
S'|By ROBIN LANE FOX  '
p4915
tp4916
(g4
(g8
S'\x00\x00\x00\x00\x00\x00I@'
p4917
tp4918
Rp4919
S' is th|e date of the Chelsea flower show'
p4920
S' it |has ||be|en the Chelsea flower show'
p4921
(I4
I31
tp4922
(I43
I67
tp4923
tp4924
s(S"|Who was Lincoln's S"
p4925
S'|View; Part E; Page '
p4926
tp4927
(g4
(g8
S'\x00\x00\x00\x00\x00\x007@'
p4928
tp4929
Rp4930
S" Lincoln||'s Secretar|y |of "
p4931
S' Lincoln was ||prepared to| '
p4932
(I7
I1219
tp4933
(I31
I1244
tp4934
tp4935
s(S'|What date in 1989 d'
p4936
S'|Metro; Part B; Page'
p4937
tp4938
(g4
(g8
S'\x00\x00\x00\x00\x00\x00?@'
p4939
tp4940
Rp4941
S'a|te| in 1989 ||di||d East Germany open the Berlin Wa'
p4942
S'anted |. ||We visited East ||||and |We|st|| Berlin |a'
p4943
(I6
I374
tp4944
(I53
I415
tp4945
tp4946
s(S'|How tall is the Sta'
p4947
S'|Metro; Part B; Page'
p4948
tp4949
(g4
(g8
S'\x00\x00\x00\x00\x00\x008@'
p4950
tp4951
Rp4952
S' tall |is the Statue '
p4953
S' t||o fix the statue '
p4954
(I3
I1490
tp4955
(I23
I1509
tp4956
tp4957
s(S'|Who is the composer'
p4958
S'|CHZ  Switzerland , '
p4959
tp4960
(g4
(g8
S'\x00\x00\x00\x00\x00\x00\x1c@'
p4961
tp4962
Rp4963
S' the '
p4964
S' The '
p4965
(I6
I175
tp4966
(I11
I180
tp4967
tp4968
s(S'|What is the number '
p4969
S'|OUTTAKES : WIND IN '
p4970
tp4971
(g4
(g8
S'\x00\x00\x00\x00\x00\x00@@'
p4972
tp4973
Rp4974
S'g| in North America when '
p4975
S'ge to North America ||in '
p4976
(I58
I359
tp4977
(I82
I382
tp4978
tp4979
s(S'|Who was President o'
p4980
S'|FBIS Report : Centr'
p4981
tp4982
(g4
(g8
S'\x00\x00\x00\x00\x00\x80K@'
p4983
tp4984
Rp4985
S' President of Turkmenistan |i'
p4986
S' President of Turkmenistan wi'
p4987
(I7
I2970
tp4988
(I35
I2999
tp4989
tp4990
s(S'|What is the capital'
p4991
S'|ORANGE COUNTY DIGES'
p4992
tp4993
(g4
(g8
S'\x00\x00\x00\x00\x00\x008@'
p4994
tp4995
Rp4996
S' th||e |capita|l ||of Michigan'
p4997
S' three men , all from Michigan'
p4998
(I7
I986
tp4999
(I31
I1016
tp5000
tp5001
s(S'|How tall is the Sta'
p5002
S'|Part A; Page 28; Co'
p5003
tp5004
(g4
(g8
S'\x00\x00\x00\x00\x00\x00I@'
p5005
tp5006
Rp5007
S' t|all |is|| the Statue of Liberty'
p5008
S' tha|t visit the Statue of Liberty'
p5009
(I3
I3401
tp5010
(I33
I3434
tp5011
tp5012
s(S'|What is the capital'
p5013
S'|WELLINGTON   A US-N'
p5014
tp5015
(g4
(g8
S'\x00\x00\x00\x00\x00\x00@@'
p5016
tp5017
Rp5018
S' the capital of Wisconsin'
p5019
S' the ||si|ze of Wisconsin'
p5020
(I7
I1057
tp5021
(I32
I1079
tp5022
tp5023
s(S'|What hotel was used'
p5024
S'|A POET ON THE PROWL'
p5025
tp5026
(g4
(g8
S'\x00\x00\x00\x00\x00\x80C@'
p5027
tp5028
Rp5029
S'ng |of |the Agatha Christie |n'
p5030
S'nt to| Dame Agatha Christie an'
p5031
(I31
I775
tp5032
(I58
I804
tp5033
tp5034
s(S'|What year was the M'
p5035
S'|SOUTH ASIA   INDIA '
p5036
tp5037
(g4
(g8
S'\x00\x00\x00\x00\x00\x00<@'
p5038
tp5039
Rp5040
S' the Magna Carta '
p5041
S' the magna carta '
p5042
(I13
I924
tp5043
(I30
I941
tp5044
tp5045
s(S'|When were the first'
p5046
S'|THE WORLD      Hung'
p5047
tp5048
(g4
(g8
S'\x00\x00\x00\x00\x00\x00G@'
p5049
tp5050
Rp5051
S' first free elections held in |the '
p5052
S' first free elections||||| in more '
p5053
(I13
I417
tp5054
(I47
I447
tp5055
tp5056
s(S'|What hotel was used'
p5057
S'|MR ASIL Nadir , the'
p5058
tp5059
(g4
(g8
S'\x00\x00\x00\x00\x00\x00E@'
p5060
tp5061
Rp5062
S'at hotel was used for a| setting of th||||||e| Agatha Christie '
p5063
S'as Hotel ||, |||immortalise||||d by the writer Agatha Christie '
p5064
(I2
I1137
tp5065
(I57
I1191
tp5066
tp5067
s(S"|What was Malcolm X'"
p5068
S'|TV REVIEW;    RIVET'
p5069
tp5070
(g4
(g8
S'\x00\x00\x00\x00\x00\x00:@'
p5071
tp5072
Rp5073
S" Malcolm X's "
p5074
S" Malcolm X's "
p5075
(I8
I1632
tp5076
(I21
I1645
tp5077
tp5078
s(S'|Where is Chicago?'
p5079
S'|Sports; Part A; Pag'
p5080
tp5081
(g4
(g8
S'\x00\x00\x00\x00\x00\x002@'
p5082
tp5083
Rp5084
S'e is Chicago'
p5085
S'e on Chicago'
p5086
(I4
I328
tp5087
(I16
I340
tp5088
tp5089
s(S'|How tall is the Eif'
p5090
S'|NOTHING SUBTLE ON E'
p5091
tp5092
(g4
(g8
S'\x00\x00\x00\x00\x00\x00B@'
p5093
tp5094
Rp5095
S'll is|||| the| Eiffel Tower'
p5096
S'll ascend the  Eiffel Tower'
p5097
(I6
I171
tp5098
(I28
I198
tp5099
tp5100
s(S'|Who created the boa'
p5101
S'|MR JOHN ASPINALL , '
p5102
tp5103
(g4
(g8
S'\x00\x00\x00\x00\x00\x008@'
p5104
tp5105
Rp5106
S'ated the board '
p5107
S'at|| the board '
p5108
(I7
I512
tp5109
(I22
I525
tp5110
tp5111
s(S'|What two companies '
p5112
S'|By ALISON MAITLAND '
p5113
tp5114
(g4
(g8
S'\x00\x00\x00\x00\x00\x80F@'
p5115
tp5116
Rp5117
S'anies |pr|oduce bovine somatotrophin'
p5118
S'a|iry hormo||ne bovine somatotrophin'
p5119
(I13
I97
tp5120
(I47
I130
tp5121
tp5122
s(S'|Which atlantic hurr'
p5123
S'|and FEMA have also '
p5124
tp5125
(g4
(g8
S'\x00\x00\x00\x00\x00\x008@'
p5126
tp5127
Rp5128
S' hurricane h'
p5129
S' hurricane h'
p5130
(I14
I3674
tp5131
(I26
I3686
tp5132
tp5133
s(S'|What is the date of'
p5134
S'|THE SKY has been as'
p5135
tp5136
(g4
(g8
S'\x00\x00\x00\x00\x00\x00=@'
p5137
tp5138
Rp5139
S't is the date of the Chelsea| flower sho'
p5140
S't is |certa|inly |no Chelsea; |no||r sho'
p5141
(I3
I1985
tp5142
(I42
I2019
tp5143
tp5144
s(S'|What year was the M'
p5145
S'|Sports; Part C; Pag'
p5146
tp5147
(g4
(g8
S'\x00\x00\x00\x00\x00\x000@'
p5148
tp5149
Rp5150
S'a|t year wa|s the Ma'
p5151
S'art||e|r |and the Pa'
p5152
(I2
I643
tp5153
(I20
I659
tp5154
tp5155
s(S'|What date in 1989 d'
p5156
S'|Part P; Page 2; Col'
p5157
tp5158
(g4
(g8
S'\x00\x00\x00\x00\x00\x80B@'
p5159
tp5160
Rp5161
S' Ea|||||st German|||||||||||y o|||pe|||n the Berlin Wall'
p5162
S' East-West German border , 80 of them at the Berlin Wall'
p5163
(I21
I2359
tp5164
(I55
I2415
tp5165
tp5166
s(S'|What is the capital'
p5167
S'|NCAA SOUTHEAST REGI'
p5168
tp5169
(g4
(g8
S'\x00\x00\x00\x00\x00\x007@'
p5170
tp5171
Rp5172
S'at is the |c|a|p||||||it||al of Michigan'
p5173
S'at||| the scrappy Musketeers |. Michigan'
p5174
(I2
I1691
tp5175
(I31
I1727
tp5176
tp5177
s(S'|What is the capital'
p5178
S'|LAKE MICHIGAN SEREN'
p5179
tp5180
(g4
(g8
S'\x00\x00\x00\x00\x00\x00<@'
p5181
tp5182
Rp5183
S's the ||||cap|||i|||tal of Michigan'
p5184
S's the first president|  of Michigan'
p5185
(I6
I3289
tp5186
(I31
I3323
tp5187
tp5188
s(S'|What is the capital'
p5189
S'|MICHIGAN RATED NO .'
p5190
tp5191
(g4
(g8
S'\x00\x00\x00\x00\x00\x008@'
p5192
tp5193
Rp5194
S' of Michigan'
p5195
S' of Michigan'
p5196
(I19
I834
tp5197
(I31
I846
tp5198
tp5199
s(S'|Who created the boa'
p5200
S'|Business; Part D; P'
p5201
tp5202
(g4
(g8
S'\x00\x00\x00\x00\x00\x00@@'
p5203
tp5204
Rp5205
S' the board game '
p5206
S' the board game '
p5207
(I11
I3475
tp5208
(I27
I3491
tp5209
tp5210
s(S'|What hotel was used'
p5211
S'|TEAM SPIRIT HELPS R'
p5212
tp5213
(g4
(g8
S'\x00\x00\x00\x00\x00\x80E@'
p5214
tp5215
Rp5216
S' |of the Agatha Christie|| novel, "An|d Then The||re '
p5217
S" to| see Agatha Christie ,  the|y |know what they're "
p5218
(I33
I562
tp5219
(I80
I612
tp5220
tp5221
s(S'|Which country has t'
p5222
S'|AMAZON ROAD      Co'
p5223
tp5224
(g4
(g8
S'\x00\x00\x00\x00\x00\x00C@'
p5225
tp5226
Rp5227
S' coun|tr|||||y has the largest part o||f the Amazon ra|in '
p5228
S' co|nstruction |of the ||r|oad thr||ough the Amazon basin '
p5229
(I5
I92
tp5230
(I54
I143
tp5231
tp5232
s(S'|How tall is the Sta'
p5233
S'|CHINESE GODDESS OF '
p5234
tp5235
(g4
(g8
S'\x00\x00\x00\x00\x00\x00>@'
p5236
tp5237
Rp5238
S' tall| i|s the Statue |of Libe'
p5239
S' |allowing the statue to| ||be'
p5240
(I3
I1666
tp5241
(I30
I1692
tp5242
tp5243
s(S'|How long does it ta'
p5244
S'|FRZ  France , EC . '
p5245
tp5246
(g4
(g8
S'\x00\x00\x00\x00\x00\x001@'
p5247
tp5248
Rp5249
S' London to Pa'
p5250
S' London||| Pa'
p5251
(I36
I141
tp5252
(I49
I151
tp5253
tp5254
s(S'|What year was the M'
p5255
S'|Business; Part D; P'
p5256
tp5257
(g4
(g8
S'\x00\x00\x00\x00\x00\x004@'
p5258
tp5259
Rp5260
S' was the Magna|| Car||ta '
p5261
S' was the primary market| '
p5262
(I9
I951
tp5263
(I30
I975
tp5264
tp5265
s(S'|Who was President o'
p5266
S'|LD0201193794 Tehran'
p5267
tp5268
(g4
(g8
S'\x00\x00\x00\x00\x00\x80I@'
p5269
tp5270
Rp5271
S' President of Turkmenistan '
p5272
S' president of Turkmenistan '
p5273
(I7
I747
tp5274
(I34
I774
tp5275
tp5276
s(S'|What is the capital'
p5277
S'|SOMETHING MISSING F'
p5278
tp5279
(g4
(g8
S'\x00\x00\x00\x00\x00\x007@'
p5280
tp5281
Rp5282
S' the| ||capital of|||| Michigan'
p5283
S' the  suc||cess of the Michigan'
p5284
(I7
I646
tp5285
(I31
I675
tp5286
tp5287
s(S'|Who created the boa'
p5288
S'|MR John Aspinall , '
p5289
tp5290
(g4
(g8
S'\x00\x00\x00\x00\x00\x002@'
p5291
tp5292
Rp5293
S'ed the |board game'
p5294
S'ed the ab|and|onme'
p5295
(I9
I679
tp5296
(I26
I695
tp5297
tp5298
s(S'|How long does it ta'
p5299
S'|LILLE   Mr Pierre M'
p5300
tp5301
(g4
(g8
S'\x00\x00\x00\x00\x00\x00>@'
p5302
tp5303
Rp5304
S'ng does |it t|ake to travel f|rom London to Pa||ris via the Chunne'
p5305
S'ng |o|n his ticke|t| ||a||s first |||deputy mayor|| |in the |Ju|ne'
p5306
(I6
I769
tp5307
(I67
I819
tp5308
tp5309
s(S'|How tall is the Sta'
p5310
S"|'GODDESS' STATUE DA"
p5311
tp5312
(g4
(g8
S'\x00\x00\x00\x00\x00\x007@'
p5313
tp5314
Rp5315
S' is the| Statue '
p5316
S' as the  statue '
p5317
(I8
I2449
tp5318
(I23
I2465
tp5319
tp5320
s(S'|How long is the App'
p5321
S'|BUILDINGS (by State'
p5322
tp5323
(g4
(g8
S'\x00\x00\x00\x00\x00\x00B@'
p5324
tp5325
Rp5326
S' Appalachian Trail'
p5327
S' Appalachian Trail'
p5328
(I15
I1013
tp5329
(I33
I1031
tp5330
tp5331
s(S'|Which atlantic hurr'
p5332
S'|There are not enoug'
p5333
tp5334
(g4
(g8
S'\x00\x00\x00\x00\x00\x00?@'
p5335
tp5336
Rp5337
S' at|l|antic hurrica|ne |||had the highest recorded wind '
p5338
S' at least|| parti|ally within the high|||||e||r||| wind '
p5339
(I5
I4641
tp5340
(I55
I4684
tp5341
tp5342
s(S'|The symptoms of Par'
p5343
S'|By MICHAEL HOLMAN  '
p5344
tp5345
(g4
(g8
S'\x00\x00\x00\x00\x00\x80J@'
p5346
tp5347
Rp5348
S" Parkinson's disease are linked to the demise of cells |||in w||hat|| |||ar||ea |of the "
p5349
S" Parkinson's Disease ||, |come| to th|||||ink of |it . The newsletter describes how the "
p5350
(I15
I3324
tp5351
(I90
I3402
tp5352
tp5353
s(S'|When were the first'
p5354
S'|Part A; Page 1; Col'
p5355
tp5356
(g4
(g8
S'\x00\x00\x00\x00\x00\x00>@'
p5357
tp5358
Rp5359
S' first free |elect|ions ||held in th'
p5360
S' first free ballot i|n| more|| || th'
p5361
(I13
I948
tp5362
(I45
I978
tp5363
tp5364
s(S'|What is the world r'
p5365
S'|COLOGNE TRACK AND F'
p5366
tp5367
(g4
(g8
S'\x00\x00\x00\x00\x00\x00B@'
p5368
tp5369
Rp5370
S'at|| is the world record'
p5371
S'ates |, the world record'
p5372
(I2
I1895
tp5373
(I24
I1918
tp5374
tp5375
s(S'|Who is the CEO of G'
p5376
S'|CHICAGO   GE Aircra'
p5377
tp5378
(g4
(g8
S'\x00\x00\x00\x00\x00\x00B@'
p5379
tp5380
Rp5381
S' of|||| General Electric'
p5382
S' of the General Electric'
p5383
(I14
I38
tp5384
(I34
I62
tp5385
tp5386
s(S'|What is the world r'
p5387
S'|Sports; Part C; Pag'
p5388
tp5389
(g4
(g8
S'\x00\x00\x00\x00\x00\x00A@'
p5390
tp5391
Rp5392
S'i|s|| the world record '
p5393
S'ios , the world-record '
p5394
(I5
I3780
tp5395
(I25
I3803
tp5396
tp5397
s(S'|How tall is the Eif'
p5398
S'|Metro; Part B; Page'
p5399
tp5400
(g4
(g8
S'\x00\x00\x00\x00\x00\x00A@'
p5401
tp5402
Rp5403
S' the Eiffel Tower'
p5404
S' the Eiffel Tower'
p5405
(I11
I448
tp5406
(I28
I465
tp5407
tp5408
s(S'|Who was the first p'
p5409
S'|Part A; Page 1; Col'
p5410
tp5411
(g4
(g8
S'\x00\x00\x00\x00\x00\x008@'
p5412
tp5413
Rp5414
S's the first '
p5415
S's the first '
p5416
(I6
I1351
tp5417
(I18
I1363
tp5418
tp5419
s(S'|What date in 1989 d'
p5420
S'|Part A; Page 3; Col'
p5421
tp5422
(g4
(g8
S'\x00\x00\x00\x00\x00\x80B@'
p5423
tp5424
Rp5425
S' East Germany |||open the '
p5426
S' East Germany before  the '
p5427
(I21
I3787
tp5428
(I44
I3813
tp5429
tp5430
s(S'|Who is the composer'
p5431
S'|GBZ  United Kingdom'
p5432
tp5433
(g4
(g8
S'\x00\x00\x00\x00\x00\x00\x1c@'
p5434
tp5435
Rp5436
S' the '
p5437
S' The '
p5438
(I6
I123
tp5439
(I11
I128
tp5440
tp5441
s(S'|What is the world r'
p5442
S'|MUSYOKI COMES UP SH'
p5443
tp5444
(g4
(g8
S'\x00\x00\x00\x00\x00\x00B@'
p5445
tp5446
Rp5447
S' the world record '
p5448
S' the world record '
p5449
(I7
I4237
tp5450
(I25
I4255
tp5451
tp5452
s(S'|Where is Bolivia?'
p5453
S'|Part P; Page 1; Col'
p5454
tp5455
(g4
(g8
S'\x00\x00\x00\x00\x00\x002@'
p5456
tp5457
Rp5458
S'e is Bolivia'
p5459
S'e || Bolivia'
p5460
(I4
I314
tp5461
(I16
I324
tp5462
tp5463
s(S'|What is the capital'
p5464
S"|UGANDA'S ELEPHANT H"
p5465
tp5466
(g4
(g8
S'\x00\x00\x00\x00\x00\x005@'
p5467
tp5468
Rp5469
S'ha|t is the capital |o|||f Uganda'
p5470
S'hant||s th|||a||t|| roamed Uganda'
p5471
(I1
I438
tp5472
(I29
I462
tp5473
tp5474
s(S'|Who was Johnny Math'
p5475
S'|HIGH SCHOOL FOOTBAL'
p5476
tp5477
(g4
(g8
S'\x00\x00\x00\x00\x00\x00;@'
p5478
tp5479
Rp5480
S' high school| t'
p5481
S' high schools t'
p5482
(I22
I168
tp5483
(I36
I183
tp5484
tp5485
s(S'|How long is the App'
p5486
S'|Part P; Page 2; Col'
p5487
tp5488
(g4
(g8
S'\x00\x00\x00\x00\x00\x80B@'
p5489
tp5490
Rp5491
S' th|e Appalachian Trail'
p5492
S' |his Appalachian Trail'
p5493
(I11
I204
tp5494
(I33
I226
tp5495
tp5496
s(S'|Who was President o'
p5497
S'|BK0206133194 Jakart'
p5498
tp5499
(g4
(g8
S'\x00\x00\x00\x00\x00\x00L@'
p5500
tp5501
Rp5502
S'o wa|s President| of Turkmenistan '
p5503
S'o |and President  of Turkmenistan '
p5504
(I2
I761
tp5505
(I34
I794
tp5506
tp5507
s(S'|Which country has t'
p5508
S'|GREED AND GLUTTONY '
p5509
tp5510
(g4
(g8
S'\x00\x00\x00\x00\x00\x80F@'
p5511
tp5512
Rp5513
S' the largest part ||of the Amazon rain forest'
p5514
S' the Wor||ld War| II , the Amazon|ia|n forest'
p5515
(I17
I2023
tp5516
(I60
I2063
tp5517
tp5518
s(S'|How long is the App'
p5519
S'|Part A; Page 3; Col'
p5520
tp5521
(g4
(g8
S'\x00\x00\x00\x00\x00\x007@'
p5522
tp5523
Rp5524
S' |long is the Appalachian Trail'
p5525
S' Along||| the |||||Indian trail'
p5526
(I3
I2988
tp5527
(I33
I3011
tp5528
tp5529
s(S'|What is the name of'
p5530
S'|33 CFR Part 151    '
p5531
tp5532
(g4
(g8
S'\x00\x00\x00\x00\x00\x00I@'
p5533
tp5534
Rp5535
S'hat ||is the name o||f t|he fore|ign marine pest in|||||festin|g the Great Lakes and '
p5536
S'hat over 100 n||||on-native |species ha||ve been introduced into the Great Lakes and '
p5537
(I1
I2181
tp5538
(I74
I2259
tp5539
tp5540
s(S'|Who is the CEO of G'
p5541
S'|Territory , the lar'
p5542
tp5543
(g4
(g8
S'\x00\x00\x00\x00\x00\x002@'
p5544
tp5545
Rp5546
S'o is the '
p5547
S'o is the '
p5548
(I2
I836
tp5549
(I11
I845
tp5550
tp5551
s(S'|What is the world r'
p5552
S'|Sports; Part 3; Pag'
p5553
tp5554
(g4
(g8
S'\x00\x00\x00\x00\x00\x80D@'
p5555
tp5556
Rp5557
S' is|| the world record ti|||me|||||| for |r|unnin|||g on|e m||i|le wh||ile| '
p5558
S' |set the world record  in the 35-39 age group in the intermediate |hurdles '
p5559
(I4
I6012
tp5560
(I57
I6086
tp5561
tp5562
s(S'|The symptoms of Par'
p5563
S'|Part A; Page 23; Co'
p5564
tp5565
(g4
(g8
S'\x00\x00\x00\x00\x00\x00K@'
p5566
tp5567
Rp5568
S"s of Parkins|on's| disease are linked to| the ||de|mise of ||||c|||||e|lls in what |are|a of the brain"
p5569
S's in ||r||espon|se mi||ght |be linked to  the same type of defect observed in th|e mice .    The brain'
p5570
(I11
I5690
tp5571
(I95
I5783
tp5572
tp5573
s(S'|The symptoms of Par'
p5574
S'|ANNEX   Political  '
p5575
tp5576
(g4
(g8
S'\x00\x00\x00\x00\x00\x80G@'
p5577
tp5578
Rp5579
S" Parkinson's disease are linked to the demise of cells in what||| |ar|ea "
p5580
S" Parkinson's disease |is a n|e|rvo||us d||is||o|rde|||||r that is marked "
p5581
(I15
I779
tp5582
(I83
I837
tp5583
tp5584
s(S'|Who is the CEO of G'
p5585
S'|BERLIN   General El'
p5586
tp5587
(g4
(g8
S'\x00\x00\x00\x00\x00\x00D@'
p5588
tp5589
Rp5590
S' of General Electric'
p5591
S' of General Electric'
p5592
(I14
I960
tp5593
(I34
I980
tp5594
tp5595
s(S'|Where is Bolivia?'
p5596
S'|SOUTH AMERICA   Bol'
p5597
tp5598
(g4
(g8
S'\x00\x00\x00\x00\x00\x002@'
p5599
tp5600
Rp5601
S'e is Bolivia'
p5602
S'egin Bolivia'
p5603
(I4
I692
tp5604
(I16
I704
tp5605
tp5606
s(S"|What was Malcolm X'"
p5607
S'|SHAKING YOUR FAMILY'
p5608
tp5609
(g4
(g8
S'\x00\x00\x00\x00\x00\x005@'
p5610
tp5611
Rp5612
S' original surname?'
p5613
S' or Steel surname?'
p5614
(I20
I181
tp5615
(I38
I199
tp5616
tp5617
s(S'|Who was Johnny Math'
p5618
S'|VASQUEZ , TRACK COA'
p5619
tp5620
(g4
(g8
S'\x00\x00\x00\x00\x00\x00@@'
p5621
tp5622
Rp5623
S"o| wa|s Johnny Mathis' ||hi|gh "
p5624
S'on |and Johnny Mathis| during| '
p5625
(I2
I166
tp5626
(I28
I194
tp5627
tp5628
s(S'|Who created the boa'
p5629
S'|Business; Part A; P'
p5630
tp5631
(g4
(g8
S'\x00\x00\x00\x00\x00\x00@@'
p5632
tp5633
Rp5634
S' the board game '
p5635
S' the board game '
p5636
(I11
I626
tp5637
(I27
I642
tp5638
tp5639
s(S'|How long is the App'
p5640
S'|JUST RELEASED IN PA'
p5641
tp5642
(g4
(g8
S'\x00\x00\x00\x00\x00\x009@'
p5643
tp5644
Rp5645
S's the Appalachian Tr'
p5646
S's |in Appalachia| |r'
p5647
(I10
I1639
tp5648
(I30
I1656
tp5649
tp5650
s(S'|Where is Bolivia?'
p5651
S'|ANNEX   Argentina  '
p5652
tp5653
(g4
(g8
S'\x00\x00\x00\x00\x00\x005@'
p5654
tp5655
Rp5656
S' |is Bolivia'
p5657
S' his Bolivia'
p5658
(I5
I328
tp5659
(I16
I340
tp5660
tp5661
s(S"|Who was Lincoln's S"
p5662
S'|Business; Part D; P'
p5663
tp5664
(g4
(g8
S'\x00\x00\x00\x00\x00\x008@'
p5665
tp5666
Rp5667
S"as|| Lincol|||n|||'s |Secre|tary of S|tate"
p5668
S'ased Lincoln only at the request of Senate'
p5669
(I5
I1200
tp5670
(I36
I1242
tp5671
tp5672
s(S"|What was Malcolm X'"
p5673
S'|CURRENT PAPERBACKS '
p5674
tp5675
(g4
(g8
S'\x00\x00\x00\x00\x00\x007@'
p5676
tp5677
Rp5678
S" Malcolm X's or|igin||al "
p5679
S' Malcolm X|| |remains a| '
p5680
(I8
I169
tp5681
(I30
I190
tp5682
tp5683
s(S"|What is the world's"
p5684
S'|PRINCE CHARLES warn'
p5685
tp5686
(g4
(g8
S'\x00\x00\x00\x00\x00\x00G@'
p5687
tp5688
Rp5689
S" the world's population"
p5690
S" the world's population"
p5691
(I7
I161
tp5692
(I30
I184
tp5693
tp5694
s(S'|Who is the CEO of G'
p5695
S'|FRANCE      Nuclear'
p5696
tp5697
(g4
(g8
S'\x00\x00\x00\x00\x00\x005@'
p5698
tp5699
Rp5700
S' the CEO of Gener|a||||l Electric'
p5701
S' the |||low |increase in electric'
p5702
(I6
I508
tp5703
(I34
I537
tp5704
tp5705
s(S'|What is the capital'
p5706
S'|UN calls off Kigali'
p5707
tp5708
(g4
(g8
S'\x00\x00\x00\x00\x00\x00,@'
p5709
tp5710
Rp5711
S' Uganda'
p5712
S' Uganda'
p5713
(I22
I55
tp5714
(I29
I62
tp5715
tp5716
s(S'|Who was President o'
p5717
S'|LD2006082394 Moscow'
p5718
tp5719
(g4
(g8
S'\x00\x00\x00\x00\x00\x00A@'
p5720
tp5721
Rp5722
S' of Turkmenistan '
p5723
S' of Turkmenistan '
p5724
(I17
I568
tp5725
(I34
I585
tp5726
tp5727
s(S'|How many lives were'
p5728
S'|Part A; Page 1; Col'
p5729
tp5730
(g4
(g8
S'\x00\x00\x00\x00\x00\x00=@'
p5731
tp5732
Rp5733
S'many lives w|ere lost in the Pan Am|| crash in Lo'
p5734
S'many ||||, where|||||||| the Pan Americ|a||||n Wo'
p5735
(I4
I708
tp5736
(I50
I740
tp5737
tp5738
s(S'|What is the capital'
p5739
S'|UGANDA TO GET LIBYA'
p5740
tp5741
(g4
(g8
S'\x00\x00\x00\x00\x00\x009@'
p5742
tp5743
Rp5744
S' i|s the capital of Uganda'
p5745
S' in  the |||form of Uganda'
p5746
(I4
I145
tp5747
(I29
I168
tp5748
tp5749
s(S'|Which country has t'
p5750
S'|Metro; Part B; Page'
p5751
tp5752
(g4
(g8
S'\x00\x00\x00\x00\x00\x00D@'
p5753
tp5754
Rp5755
S'e Amazon rain forest'
p5756
S'e Amazon rain forest'
p5757
(I40
I559
tp5758
(I60
I579
tp5759
tp5760
s(S'|What is the capital'
p5761
S'|Business; Part 4; P'
p5762
tp5763
(g4
(g8
S'\x00\x00\x00\x00\x00\x00=@'
p5764
tp5765
Rp5766
S' the |capital of Michigan'
p5767
S' The Sta||t|e of Michigan'
p5768
(I7
I292
tp5769
(I31
I314
tp5770
tp5771
s(S'|The Faroes are a pa'
p5772
S'|By HILARY BARNES   '
p5773
tp5774
(g4
(g8
S'\x00\x00\x00\x00\x00\x80@@'
p5775
tp5776
Rp5777
S'he Faroe||s a|re a|| par|||t o|f||||| what||| northern European co'
p5778
S'he Faroe Islands and Faroese offshore w|aters to the|| Faro|ese go'
p5779
(I1
I116
tp5780
(I50
I178
tp5781
tp5782
s(S'|What is the capital'
p5783
S'|OW1804181894 Beijin'
p5784
tp5785
(g4
(g8
S'\x00\x00\x00\x00\x00\x008@'
p5786
tp5787
Rp5788
S'al of Uganda'
p5789
S'al of Uganda'
p5790
(I17
I384
tp5791
(I29
I396
tp5792
tp5793
s(S'|How long does it ta'
p5794
S'|Sir , I very much e'
p5795
tp5796
(g4
(g8
S'\x00\x00\x00\x00\x00\x80@@'
p5797
tp5798
Rp5799
S'es |i|t ||ta|ke t||||o| ||t||ravel fro|m Lon|do|n to|| Paris via|| the| '
p5800
S'e| will be able to shop until she| drops |in down|town Paris , and then '
p5801
(I11
I1354
tp5802
(I61
I1422
tp5803
tp5804
s(S'|Who was President o'
p5805
S'|LD0201113894 Tehran'
p5806
tp5807
(g4
(g8
S'\x00\x00\x00\x00\x00\x80I@'
p5808
tp5809
Rp5810
S' President of Turkmenistan '
p5811
S' president of Turkmenistan '
p5812
(I7
I255
tp5813
(I34
I282
tp5814
tp5815
s(S'|Who created the boa'
p5816
S'|View; Part E; Page '
p5817
tp5818
(g4
(g8
S'\x00\x00\x00\x00\x00\x00A@'
p5819
tp5820
Rp5821
S' creat|ed th|e board game '
p5822
S' creating |his board game '
p5823
(I3
I1004
tp5824
(I27
I1029
tp5825
tp5826
s(S'|Who is the composer'
p5827
S'|intimate Britten Th'
p5828
tp5829
(g4
(g8
S'\x00\x00\x00\x00\x00\x002@'
p5830
tp5831
Rp5832
S's the composer of '
p5833
S's the Ro|dolfo of '
p5834
(I5
I824
tp5835
(I23
I841
tp5836
tp5837
s(S'|Who was the first p'
p5838
S'|ORANGE COUNTY GAVE '
p5839
tp5840
(g4
(g8
S'\x00\x00\x00\x00\x00\xc0P@'
p5841
tp5842
Rp5843
S' the first person to set foot on the moon'
p5844
S' the first |||man to set foot on the moon'
p5845
(I7
I1046
tp5846
(I48
I1084
tp5847
tp5848
s(S'|What is the shape o'
p5849
S'|By NIKKI TAIT      '
p5850
tp5851
(g4
(g8
S'\x00\x00\x00\x00\x00\x007@'
p5852
tp5853
Rp5854
S'at is the shape of '
p5855
S'as in the |case of '
p5856
(I2
I1382
tp5857
(I21
I1400
tp5858
tp5859
s(S'|What is the name of'
p5860
S'|Part A; Page 1; Col'
p5861
tp5862
(g4
(g8
S'\x00\x00\x00\x00\x00\x00D@'
p5863
tp5864
Rp5865
S'at is the name of t|he |foreign mari||||||||ne ||pest infes||ti|ng the |Great Lakes and |associated wat||erways| '
p5866
S'at||| the same||| time , " Rice sa|id .    The latest infestation| |in Rose||mea||d and El Mo||nte| |at le||a|st '
p5867
(I2
I5527
tp5868
(I95
I5620
tp5869
tp5870
s(S'|What is the number '
p5871
S'|By DAMIAN FRASER   '
p5872
tp5873
(g4
(g8
S'\x00\x00\x00\x00\x00\x00;@'
p5874
tp5875
Rp5876
S'at is the number |o||f ||buffaloes thought to||| have been living i|||n North| Amer|||||ica|| wh||en Columb|u|||||s ||landed |in '
p5877
S'al in the |||New World 500 yea||rs |||ag|o today ha|s been expropriated by the |very Indi|ans whose| ||su|bjugation followed his '
p5878
(I2
I94
tp5879
(I101
I207
tp5880
tp5881
s(S'|Who is the composer'
p5882
S'|Calendar; Part F; P'
p5883
tp5884
(g4
(g8
S'\x00\x00\x00\x00\x00\x00@@'
p5885
tp5886
Rp5887
S' |i|s the composer of '
p5888
S' with the composer on '
p5889
(I3
I1787
tp5890
(I23
I1809
tp5891
tp5892
s(S'|Who is the composer'
p5893
S'|reminiscing in the '
p5894
tp5895
(g4
(g8
S'\x00\x00\x00\x00\x00\x004@'
p5896
tp5897
Rp5898
S' is |t|h|e compose|r of |||Eugen||e |One|g||in'
p5899
S' is at his |||p||eak of eloqu|ent , fine-grain'
p5900
(I3
I821
tp5901
(I36
I861
tp5902
tp5903
s(S'|What is the number '
p5904
S'|Callejas Comments o'
p5905
tp5906
(g4
(g8
S'\x00\x00\x00\x00\x00\x80B@'
p5907
tp5908
Rp5909
S'ing| in North America| |||wh||en Columbus land|ed in '
p5910
S'ing] |A North American purchased ||||the  land e|ven '
p5911
(I56
I2147
tp5912
(I101
I2194
tp5913
tp5914
s(S'|Which country has t'
p5915
S'|THE MARTYR OF THE R'
p5916
tp5917
(g4
(g8
S'\x00\x00\x00\x00\x00\x00L@'
p5918
tp5919
Rp5920
S' the la|||||r||gest par||t of the Amazon rain forest'
p5921
S' the native rubbe|r |trees of the Amazon rain forest'
p5922
(I17
I4728
tp5923
(I60
I4778
tp5924
tp5925
s(S'|Who was the first p'
p5926
S'|SCIENCE / MEDICINE;'
p5927
tp5928
(g4
(g8
S'\x00\x00\x00\x00\x00\x00M@'
p5929
tp5930
Rp5931
S' was the first perso|||||n to set foot on the moon'
p5932
S' |as the |||s|||e|cond man to set foot on the moon'
p5933
(I3
I7799
tp5934
(I48
I7841
tp5935
tp5936
s(S'|Which country has t'
p5937
S'|JAPAN REPORTEDLY WO'
p5938
tp5939
(g4
(g8
S'\x00\x00\x00\x00\x00\x80G@'
p5940
tp5941
Rp5942
S' country has the larg|est part o||f the Amazon rain forest'
p5943
S' co|ntrovers|ial  highway thr||ough the Amazon rain forest'
p5944
(I5
I169
tp5945
(I60
I223
tp5946
tp5947
s(S'|Which atlantic hurr'
p5948
S'|suitable load tests'
p5949
tp5950
(g4
(g8
S'\x00\x00\x00\x00\x00\x00<@'
p5951
tp5952
Rp5953
S'atl||antic |h|urricane ha|d the |||||hi|ghes|t |r|ecorded wind spe|||ed'
p5954
S'a|l ra|ted sheathi||ng |and the sheathing is   orie||nted |and s|ecured'
p5955
(I6
I4380
tp5956
(I60
I4442
tp5957
tp5958
s(S'|What year was the M'
p5959
S'|By ROBERT GIBBENS  '
p5960
tp5961
(g4
(g8
S'\x00\x00\x00\x00\x00\x002@'
p5962
tp5963
Rp5964
S' year was the Magna Cart'
p5965
S' pe|r |cent . Magna |a|t'
p5966
(I4
I702
tp5967
(I28
I722
tp5968
tp5969
s(S'|What is the date of'
p5970
S'|LASMO .   Countries'
p5971
tp5972
(g4
(g8
S'\x00\x00\x00\x00\x00\x00"@'
p5973
tp5974
Rp5975
S'e of the '
p5976
S'e .  The '
p5977
(I15
I131
tp5978
(I24
I140
tp5979
tp5980
s(S'|What is the capital'
p5981
S'|UGANDA FREES 40 REB'
p5982
tp5983
(g4
(g8
S'\x00\x00\x00\x00\x00\x001@'
p5984
tp5985
Rp5986
S' is the capital of '
p5987
S' in the |north  of '
p5988
(I4
I134
tp5989
(I23
I152
tp5990
tp5991
s(S'|What year was the M'
p5992
S'|WASHINGTON   TEXTIL'
p5993
tp5994
(g4
(g8
S'\x00\x00\x00\x00\x00\x00=@'
p5995
tp5996
Rp5997
S'hat |year wa|||s the Magna Carta| '
p5998
S"hat the|y called |'a Magna Carta' "
p5999
(I1
I619
tp6000
(I30
I651
tp6001
tp6002
s(S'|When did Nelson Man'
p6003
S'|TAIWAN      Preside'
p6004
tp6005
(g4
(g8
S'\x00\x00\x00\x00\x00\x80A@'
p6006
tp6007
Rp6008
S' |Nelson Mandela||| |bec||o||||me President |o'
p6009
S" ANC's|| Mandela on Election      President Co"
p6010
(I8
I35
tp6011
(I42
I79
tp6012
tp6013
s(S'|What is the capital'
p6014
S'|FRIEDER HAPPY FOR M'
p6015
tp6016
(g4
(g8
S'\x00\x00\x00\x00\x00\x00>@'
p6017
tp6018
Rp6019
S' the capital of Michigan'
p6020
S' the ||final |, Michigan'
p6021
(I7
I1713
tp6022
(I31
I1734
tp6023
tp6024
s(S'|When did Nelson Man'
p6025
S'|CARIBBEAN   Cuba   '
p6026
tp6027
(g4
(g8
S'\x00\x00\x00\x00\x00\x00J@'
p6028
tp6029
Rp6030
S'en| did Nelson Mandela become President of South| Africa'
p6031
S'ent ||, Nelson Mandela |||||,  le|ade|r of |||the Africa'
p6032
(I2
I880
tp6033
(I56
I924
tp6034
tp6035
s(S'|When will the Voyag'
p6036
S'|A PIECE OF US GOES '
p6037
tp6038
(g4
(g8
S'\x00\x00\x00\x00\x00\x00;@'
p6039
tp6040
Rp6041
S'hen will|||||| th||||||||e| Voyage|rs lose con||t|act '
p6042
S'hen will begin the  grander voyage -- |the |one tha|t '
p6043
(I1
I4821
tp6044
(I36
I4872
tp6045
tp6046
s(S'|Which atlantic hurr'
p6047
S'|CREW TRAPPED IN CAP'
p6048
tp6049
(g4
(g8
S'\x00\x00\x00\x00\x00\x00>@'
p6050
tp6051
Rp6052
S' hurricane |h|||a||d the highest '
p6053
S' Hurricane Chantal , the fi||rst '
p6054
(I14
I146
tp6055
(I41
I177
tp6056
tp6057
s(S'|Which atlantic hurr'
p6058
S'|Part A; Page 39; Co'
p6059
tp6060
(g4
(g8
S'\x00\x00\x00\x00\x00\x00A@'
p6061
tp6062
Rp6063
S'h| |atlantic hurrica|||||n|e|||| |ha||||||d the |||highest recorded '
p6064
S'he Nation|al Hurricane Center in Miami .    The strong|est recorded '
p6065
(I4
I2207
tp6066
(I50
I2273
tp6067
tp6068
s(S'|How many lives were'
p6069
S'|NC0901180594 Tehran'
p6070
tp6071
(g4
(g8
S'\x00\x00\x00\x00\x00\x80I@'
p6072
tp6073
Rp6074
S' liv|||e||s ||wer|||e |lost in the Pan Am|| crash ||||in||||||| Lockerbie|, Scotland'
p6075
S' Five years after the crash of ||a Pan Americ|an  airliner over Lockerbie , Scotland'
p6076
(I8
I204
tp6077
(I67
I285
tp6078
tp6079
s(S'|Where is Chicago?'
p6080
S'|CHICAGO   THE Chica'
p6081
tp6082
(g4
(g8
S'\x00\x00\x00\x00\x00\x006@'
p6083
tp6084
Rp6085
S'r|e is Chicago'
p6086
S'rse in Chicago'
p6087
(I3
I224
tp6088
(I16
I238
tp6089
tp6090
s(S'|What is the number '
p6091
S'|By JOHN GRIFFITHS  '
p6092
tp6093
(g4
(g8
S'\x00\x00\x00\x00\x00\x00D@'
p6094
tp6095
Rp6096
S' to have been livin|||g in North America '
p6097
S' to||||| b|e| l|aunched in North America '
p6098
(I39
I322
tp6099
(I77
I355
tp6100
tp6101
s(S'|Which country has t'
p6102
S'|Opinion; Part M; Pa'
p6103
tp6104
(g4
(g8
S'\x00\x00\x00\x00\x00\x00J@'
p6105
tp6106
Rp6107
S' country has the largest par|t of the Amazon rain forest'
p6108
S' nou||rishes the largest stret||||ch| ||||of rain forest'
p6109
(I5
I3071
tp6110
(I60
I3116
tp6111
tp6112
s(S'|Who was President o'
p6113
S'|TA2904201294 Ankara'
p6114
tp6115
(g4
(g8
S'\x00\x00\x00\x00\x00\x00B@'
p6116
tp6117
Rp6118
S' of Turkmenistan ||in'
p6119
S' of Turkmenistan prin'
p6120
(I17
I1605
tp6121
(I36
I1626
tp6122
tp6123
s(S'|What is the shape o'
p6124
S'|Part A; Page 32; Co'
p6125
tp6126
(g4
(g8
S'\x00\x00\x00\x00\x00\x006@'
p6127
tp6128
Rp6129
S' |is the shape |of a porpoise'
p6130
S' dis|tre|s|s . The | porpoise'
p6131
(I4
I310
tp6132
(I31
I335
tp6133
tp6134
s(S'|Who is the composer'
p6135
S'|On Tuesday at the B'
p6136
tp6137
(g4
(g8
S'\x00\x00\x00\x00\x00\x00=@'
p6138
tp6139
Rp6140
S'o |i|s the composer'
p6141
S'o with the composer'
p6142
(I2
I1537
tp6143
(I19
I1556
tp6144
tp6145
s(S'|What is the capital'
p6146
S'|40 CFR Part 271    '
p6147
tp6148
(g4
(g8
S'\x00\x00\x00\x00\x00\x00@@'
p6149
tp6150
Rp6151
S't is ||t|he|||| cap|ital of Wisconsin'
p6152
S'this notice .   Approval of Wisconsin'
p6153
(I3
I4293
tp6154
(I32
I4330
tp6155
tp6156
s(S'|The symptoms of Par'
p6157
S'|WHY DOES THE NOSE K'
p6158
tp6159
(g4
(g8
S'\x00\x00\x00\x00\x00\x80G@'
p6160
tp6161
Rp6162
S" Parkinson's diseas|||||||e||| |ar||e||||||||||||||||||| linked to the demise of |cells "
p6163
S" Parkinson's disease . A year  earlier , a similar study linked||| the ||loss of smell| "
p6164
(I15
I4432
tp6165
(I70
I4514
tp6166
tp6167
s(S'|Which atlantic hurr'
p6168
S'|HURRICANE HITS EAST'
p6169
tp6170
(g4
(g8
S'\x00\x00\x00\x00\x00\x00@@'
p6171
tp6172
Rp6173
S' hurricane had the highest recorded wind speed'
p6174
S" hurricane||||||'s |||sust||||ained wind speed"
p6175
(I14
I508
tp6176
(I60
I541
tp6177
tp6178
s(S'|Who was President o'
p6179
S'|NC2401134394 Tabriz'
p6180
tp6181
(g4
(g8
S'\x00\x00\x00\x00\x00\x80@@'
p6182
tp6183
Rp6184
S'nt of Turkmenistan'
p6185
S'ng of Turkmenistan'
p6186
(I15
I3359
tp6187
(I33
I3377
tp6188
tp6189
s(S'|Who is the CEO of G'
p6190
S'|General Electric Co'
p6191
tp6192
(g4
(g8
S'\x00\x00\x00\x00\x00\x00A@'
p6193
tp6194
Rp6195
S' General Electric'
p6196
S' General Electric'
p6197
(I17
I250
tp6198
(I34
I267
tp6199
tp6200
s(S'|How long is the App'
p6201
S'|Part A; Page 34; Co'
p6202
tp6203
(g4
(g8
S'\x00\x00\x00\x00\x00\x00<@'
p6204
tp6205
Rp6206
S' t|||he Appalachian '
p6207
S' taught Appalachian '
p6208
(I11
I1058
tp6209
(I28
I1078
tp6210
tp6211
s(S'|How tall is the Eif'
p6212
S'|Ventura County Life'
p6213
tp6214
(g4
(g8
S'\x00\x00\x00\x00\x00\x00A@'
p6215
tp6216
Rp6217
S' the Eiffel Tower'
p6218
S' the Eiffel Tower'
p6219
(I11
I420
tp6220
(I28
I437
tp6221
tp6222
s(S'|What is the number '
p6223
S'|fire , plus the nar'
p6224
tp6225
(g4
(g8
S'\x00\x00\x00\x00\x00\x00F@'
p6226
tp6227
Rp6228
S' the number of|||| buffaloes |t|hought| to have been living |in North America| '
p6229
S' the |fate| of the buffalo . It is with t||h||e |history of the North American '
p6230
(I7
I3869
tp6231
(I77
I3941
tp6232
tp6233
s(S'|The symptoms of Par'
p6234
S'|A .E .T .T .  Ceroi'
p6235
tp6236
(g4
(g8
S'\x00\x00\x00\x00\x00\x00E@'
p6237
tp6238
Rp6239
S" Parkinson's disease "
p6240
S" Parkinson's disease "
p6241
(I15
I237
tp6242
(I36
I258
tp6243
tp6244
s(S'|How tall is the Eif'
p6245
S'|Calendar; Part F; P'
p6246
tp6247
(g4
(g8
S'\x00\x00\x00\x00\x00\x80B@'
p6248
tp6249
Rp6250
S' tall is the| Eiffel Tower'
p6251
S' half |, the  Eiffel Tower'
p6252
(I3
I3138
tp6253
(I28
I3163
tp6254
tp6255
s(S'|Who was President o'
p6256
S'|OW2204053194 Beijin'
p6257
tp6258
(g4
(g8
S'\x00\x00\x00\x00\x00\x00D@'
p6259
tp6260
Rp6261
S'ent of Turkmenistan '
p6262
S'ent of Turkmenistan '
p6263
(I14
I254
tp6264
(I34
I274
tp6265
tp6266
s(S'|What is the capital'
p6267
S'|Part A; Page 4; Col'
p6268
tp6269
(g4
(g8
S'\x00\x00\x00\x00\x00\x00:@'
p6270
tp6271
Rp6272
S' of Wisconsin'
p6273
S' of Wisconsin'
p6274
(I19
I158
tp6275
(I32
I171
tp6276
tp6277
s(S'|Who was the first p'
p6278
S'|S . KOREA DISSIDENT'
p6279
tp6280
(g4
(g8
S'\x00\x00\x00\x00\x00\x00=@'
p6281
tp6282
Rp6283
S' was the first p|erson to set fo|ot on the '
p6284
S' w||ith| ||||a ple|dge to get tough on the '
p6285
(I3
I1715
tp6286
(I44
I1750
tp6287
tp6288
s(S'|How many lives were'
p6289
S'|MOURNERS FIGHT BACK'
p6290
tp6291
(g4
(g8
S'\x00\x00\x00\x00\x00\x80G@'
p6292
tp6293
Rp6294
S' were lost |||in| the|| Pan Am cr|ash in Lockerbie|, Scotland'
p6295
S' we|e||ps| during  memorial ||service in Lockerbie , Scotland'
p6296
(I14
I2424
tp6297
(I67
I2479
tp6298
tp6299
s(S'|When did Nelson Man'
p6300
S'|ANNEX   Cuba      C'
p6301
tp6302
(g4
(g8
S'\x00\x00\x00\x00\x00\x00@@'
p6303
tp6304
Rp6305
S'n did Nelson| Mandela '
p6306
S'n |of Nelson  Mandela '
p6307
(I3
I581
tp6308
(I24
I602
tp6309
tp6310
s(S'|The Faroes are a pa'
p6311
S'|COPENHAGEN   THE Da'
p6312
tp6313
(g4
(g8
S'\x00\x00\x00\x00\x00\x007@'
p6314
tp6315
Rp6316
S' a part of wh'
p6317
S' a part of th'
p6318
(I14
I329
tp6319
(I27
I342
tp6320
tp6321
s(S'|Who was Johnny Math'
p6322
S'|MACK TO COACH TRACK'
p6323
tp6324
(g4
(g8
S'\x00\x00\x00\x00\x00\x00=@'
p6325
tp6326
Rp6327
S" was Jo||hnny Mathis' high school "
p6328
S' has coach|ed |||si|x high school '
p6329
(I3
I276
tp6330
(I35
I305
tp6331
tp6332
s(S"|What was Malcolm X'"
p6333
S'|CHAPLIN (12) Richar'
p6334
tp6335
(g4
(g8
S'\x00\x00\x00\x00\x00\x00=@'
p6336
tp6337
Rp6338
S" Malcolm X's |||ori"
p6339
S" Malcolm X's notori"
p6340
(I8
I3022
tp6341
(I24
I3041
tp6342
tp6343
s(S'|How many lives were'
p6344
S'|4 BEGIN 500-MILE RU'
p6345
tp6346
(g4
(g8
S'\x00\x00\x00\x00\x00\x00<@'
p6347
tp6348
Rp6349
S'ow many lives we|re lost in the Pan Am crash in Lockerbie, '
p6350
S'on |and |are| |expe|||ct|ed t|o ||| ||arrive in Lockerbie| '
p6351
(I1
I349
tp6352
(I59
I393
tp6353
tp6354
s(S'|Who created the boa'
p6355
S'|46 .9m unsolicited '
p6356
tp6357
(g4
(g8
S'\x00\x00\x00\x00\x00\x00@@'
p6358
tp6359
Rp6360
S' the board game '
p6361
S' the board game '
p6362
(I11
I78
tp6363
(I27
I94
tp6364
tp6365
s(S'|How long does it ta'
p6366
S'|From Mr K D SHILLET'
p6367
tp6368
(g4
(g8
S'\x00\x00\x00\x00\x00\x00:@'
p6369
tp6370
Rp6371
S'es it take to||| travel f|rom London to Paris via the Chunnel'
p6372
S'es |not||| |only t||he| ferry |o|perato|||r|s but the |tunnel'
p6373
(I11
I1083
tp6374
(I68
I1129
tp6375
tp6376
s(S'|Which atlantic hurr'
p6377
S'|be determined using'
p6378
tp6379
(g4
(g8
S'\x00\x00\x00\x00\x00\x009@'
p6380
tp6381
Rp6382
S' |the highest '
p6383
S' (the highest '
p6384
(I28
I445
tp6385
(I41
I459
tp6386
tp6387
s(S'|How long does it ta'
p6388
S'|in relation to the '
p6389
tp6390
(g4
(g8
S'\x00\x00\x00\x00\x00\x00=@'
p6391
tp6392
Rp6393
S' long does ||it take to tra|vel from Lo|nd|||on to P'
p6394
S' |on| |Le| Shut|t|le||| |range| from Pounds 220 to P'
p6395
(I3
I249
tp6396
(I48
I290
tp6397
tp6398
s(S'|What year was the M'
p6399
S'|From October 1 next'
p6400
tp6401
(g4
(g8
S'\x00\x00\x00\x00\x00\x00A@'
p6402
tp6403
Rp6404
S' the Magna Carta '
p6405
S' the Magna Carta '
p6406
(I13
I628
tp6407
(I30
I645
tp6408
tp6409
s(S'|Which atlantic hurr'
p6410
S'|Part A; Page 1; Col'
p6411
tp6412
(g4
(g8
S'\x00\x00\x00\x00\x00\x00>@'
p6413
tp6414
Rp6415
S' hurricane |had th|e highest re|c'
p6416
S' hurricane when that ||speed reac'
p6417
(I14
I762
tp6418
(I44
I793
tp6419
tp6420
s(S'|When did Nelson Man'
p6421
S'|Part A; Page 13; Co'
p6422
tp6423
(g4
(g8
S'\x00\x00\x00\x00\x00\x00G@'
p6424
tp6425
Rp6426
S'hen| ||did||| |Nelson Mandel|||a| become '
p6427
S'hen  added :  "Nelson Mandela has become '
p6428
(I1
I2079
tp6429
(I31
I2120
tp6430
tp6431
s(S'|How tall is the Eif'
p6432
S'|Sports; Part C; Pag'
p6433
tp6434
(g4
(g8
S'\x00\x00\x00\x00\x00\x00>@'
p6435
tp6436
Rp6437
S'l is the Eiffel Tower'
p6438
S'l|i|ttle Eiffel Tower'
p6439
(I7
I2579
tp6440
(I28
I2598
tp6441
tp6442
s(S'|What date in 1989 d'
p6443
S'|Part A; Page 15; Co'
p6444
tp6445
(g4
(g8
S'\x00\x00\x00\x00\x00\x80F@'
p6446
tp6447
Rp6448
S' East Germany open|| the Berlin Wall'
p6449
S' East Germany opened th|||e|||| Wall'
p6450
(I21
I498
tp6451
(I55
I527
tp6452
tp6453
s(S"|What was Malcolm X'"
p6454
S'|View; Part E; Page '
p6455
tp6456
(g4
(g8
S'\x00\x00\x00\x00\x00\x007@'
p6457
tp6458
Rp6459
S"l|m| X's origin||||||al surname"
p6460
S'l me the origins of the surname'
p6461
(I14
I2810
tp6462
(I37
I2841
tp6463
tp6464
s(S'|The Faroes are a pa'
p6465
S'|By BRONWEN MADDOX  '
p6466
tp6467
(g4
(g8
S'\x00\x00\x00\x00\x00\x80I@'
p6468
tp6469
Rp6470
S' a|| p|||art| ||||o|f what northern European countr'
p6471
S' and priva|te sectors ||in northern European countr'
p6472
(I14
I2221
tp6473
(I54
I2269
tp6474
tp6475
s(S'|What hotel was used'
p6476
S'|TELEVISION REVIEWS '
p6477
tp6478
(g4
(g8
S'\x00\x00\x00\x00\x00\x80A@'
p6479
tp6480
Rp6481
S' Agatha Christie||| novel, "And Then The'
p6482
S' Agatha Christie\'s  "The|| Man| ||in the'
p6483
(I40
I98
tp6484
(I77
I133
tp6485
tp6486
s(S'|What is the date of'
p6487
S'|THE WEATHER has bee'
p6488
tp6489
(g4
(g8
S'\x00\x00\x00\x00\x00\x00F@'
p6490
tp6491
Rp6492
S'hat is the| |||date of the Chelsea flower show'
p6493
S'ha|||s been kind||e||r t|o Chelsea flower show'
p6494
(I1
I12
tp6495
(I43
I50
tp6496
tp6497
s(S'|When will the Voyag'
p6498
S'| . .  . WISH YOU WE'
p6499
tp6500
(g4
(g8
S'\x00\x00\x00\x00\x00\x008@'
p6501
tp6502
Rp6503
S' w|ill the Voyager|||s |lose| '
p6504
S' whi|l|||e Voyager has stored '
p6505
(I4
I1712
tp6506
(I28
I1738
tp6507
tp6508
s(S'|What is the name of'
p6509
S'|the EEZ . While the'
p6510
tp6511
(g4
(g8
S'\x00\x00\x00\x00\x00\x00I@'
p6512
tp6513
Rp6514
S's the name| |of t|he fore|||||ign| marine pe|st infesting the Great Lakes ||and associ|ated |wat|e|rways| '
p6515
S's|t|| water co|ntrol ||regulations for vessels| ente|ring the Great Lakes tha|t were issued by the Coa|st '
p6516
(I6
I1663
tp6517
(I95
I1759
tp6518
tp6519
s.